(dp1
S'OriginalConfig'
p2
ccopy_reg
_reconstructor
p3
(cWMCore.Configuration
Configuration
p4
c__builtin__
object
p5
NtRp6
(dp7
S'Site'
p8
g3
(cWMCore.Configuration
ConfigSection
p9
g5
NtRp10
(dp11
S'_internal_skipChecks'
p12
I00
sS'_internal_documentation'
p13
S''
sS'_internal_settings'
p14
c__builtin__
set
p15
((lp16
S'storageSite'
p17
atRp18
sS'_internal_name'
p19
g8
sS'_internal_docstrings'
p20
(dp21
sS'_internal_children'
p22
g15
((ltRp23
sg17
S'T2_CH_CERNBOX'
p24
sS'_internal_parent_ref'
p25
NsbsS'_internal_sections'
p26
(lp27
S'General'
p28
aS'JobType'
p29
aS'Data'
p30
ag8
aS'User'
p31
aS'Debug'
p32
asg28
g3
(g9
g5
NtRp33
(dp34
g12
I00
sg13
S''
sg14
g15
((ltRp35
sg19
g28
sg20
(dp36
sg22
g15
((ltRp37
sg25
NsbsS'_internal_webapps'
p38
(lp39
sg31
g3
(g9
g5
NtRp40
(dp41
g12
I00
sg13
S''
sg14
g15
((ltRp42
sg19
g31
sg20
(dp43
sg22
g15
((ltRp44
sg25
NsbsS'_internal_components'
p45
(lp46
sg32
g3
(g9
g5
NtRp47
(dp48
g12
I00
sg13
S''
sg14
g15
((ltRp49
sg19
g32
sg20
(dp50
sg22
g15
((ltRp51
sg25
Nsbsg30
g3
(g9
g5
NtRp52
(dp53
S'inputDataset'
p54
S'/DYJetsToLL_M-10to50_TuneCP5_13TeV-madgraphMLM-pythia8/RunIIAutumn18MiniAOD-102X_upgrade2018_realistic_v15-v2/MINIAODSIM'
p55
sg12
I00
sS'unitsPerJob'
p56
I50000
sg13
S''
sg14
g15
((lp57
g54
ag56
aS'splitting'
p58
aS'outLFNDirBase'
p59
atRp60
sg19
g30
sg58
S'EventAwareLumiBased'
p61
sg20
(dp62
sg22
g15
((ltRp63
sg59
S'/store/user/ccosby/Zdark020320DY/'
p64
sg25
Nsbsg29
g3
(g9
g5
NtRp65
(dp66
g12
I00
sS'pyCfgParams'
p67
(lp68
S'isMC=True'
p69
aS'useWeights=True'
p70
aS'xsec=1.0'
p71
asg13
S''
sg14
g15
((lp72
S'psetName'
p73
aS'pluginName'
p74
ag67
aS'allowUndistributedCMSSW'
p75
atRp76
sg19
g29
sg20
(dp77
sg74
S'Analysis'
p78
sg22
g15
((ltRp79
sg75
I01
sg73
S'../../test/tree_cfg.py'
p80
sg25
NsbsbsS'voGroup'
p81
S''
sS'Server'
p82
S'cmsweb.cern.ch'
p83
sS'instance'
p84
S'prod'
p85
sS'RequestName'
p86
V200204_043023:ccosby_crab_20200204_053015
p87
sS'voRole'
p88
S'NULL'
p89
sS'Port'
p90
S''
s.