(dp1
S'OriginalConfig'
p2
ccopy_reg
_reconstructor
p3
(cWMCore.Configuration
Configuration
p4
c__builtin__
object
p5
NtRp6
(dp7
S'Site'
p8
g3
(cWMCore.Configuration
ConfigSection
p9
g5
NtRp10
(dp11
S'_internal_skipChecks'
p12
I00
sS'_internal_documentation'
p13
S''
sS'_internal_settings'
p14
c__builtin__
set
p15
((lp16
S'whitelist'
p17
aS'storageSite'
p18
atRp19
sS'_internal_name'
p20
g8
sS'_internal_docstrings'
p21
(dp22
sS'_internal_children'
p23
g15
((ltRp24
sg18
S'T2_CH_CERNBOX'
p25
sS'_internal_parent_ref'
p26
Nsg17
(lp27
S'T2_CH_CERN'
p28
asbsS'_internal_sections'
p29
(lp30
S'General'
p31
aS'JobType'
p32
aS'Data'
p33
ag8
aS'User'
p34
aS'Debug'
p35
asg31
g3
(g9
g5
NtRp36
(dp37
g12
I00
sg13
S''
sg14
g15
((ltRp38
sg20
g31
sg21
(dp39
sg23
g15
((ltRp40
sg26
NsbsS'_internal_webapps'
p41
(lp42
sg34
g3
(g9
g5
NtRp43
(dp44
g12
I00
sg13
S''
sg14
g15
((ltRp45
sg20
g34
sg21
(dp46
sg23
g15
((ltRp47
sg26
NsbsS'_internal_components'
p48
(lp49
sg35
g3
(g9
g5
NtRp50
(dp51
g12
I00
sg13
S''
sg14
g15
((ltRp52
sg20
g35
sg21
(dp53
sg23
g15
((ltRp54
sg26
Nsbsg33
g3
(g9
g5
NtRp55
(dp56
g12
I00
sS'unitsPerJob'
p57
I10000
sg13
S''
sg14
g15
((lp58
g57
aS'userInputFiles'
p59
aS'splitting'
p60
aS'lumiMask'
p61
aS'outLFNDirBase'
p62
aS'outputPrimaryDataset'
p63
atRp64
sg62
S'/store/user/ccosby/newSample/'
p65
sg20
g33
sg60
S'FileBased'
p66
sg21
(dp67
sg23
g15
((ltRp68
sg63
S'DarkPhoton2018'
p69
sg26
Nsg61
S''
sg59
(lp70
S'root://eosuser.cern.ch//eos/user/c/ccosby/miniAOD/2018/DarkPhoton/crab_20200412_052026/200412_032038/0000/miniaod_1-16.root\n'
p71
aS'root://eosuser.cern.ch//eos/user/c/ccosby/miniAOD/2018/DarkPhoton/crab_20200412_052026/200412_032038/0000/miniaod_1-18.root\n'
p72
aS'root://eosuser.cern.ch//eos/user/c/ccosby/miniAOD/2018/DarkPhoton/crab_20200412_052026/200412_032038/0000/miniaod_1-20.root\n'
p73
aS'root://eosuser.cern.ch//eos/user/c/ccosby/miniAOD/2018/DarkPhoton/crab_20200412_052026/200412_032038/0000/miniaod_1-21.root\n'
p74
aS'root://eosuser.cern.ch//eos/user/c/ccosby/miniAOD/2018/DarkPhoton/crab_20200412_052026/200412_032038/0000/miniaod_1-22.root\n'
p75
aS'root://eosuser.cern.ch//eos/user/c/ccosby/miniAOD/2018/DarkPhoton/crab_20200412_052026/200412_032038/0000/miniaod_1-23.root\n'
p76
aS'root://eosuser.cern.ch//eos/user/c/ccosby/miniAOD/2018/DarkPhoton/crab_20200412_052026/200412_032038/0000/miniaod_1-24.root\n'
p77
aS'root://eosuser.cern.ch//eos/user/c/ccosby/miniAOD/2018/DarkPhoton/crab_20200412_052026/200412_032038/0000/miniaod_1-25.root\n'
p78
aS'root://eosuser.cern.ch//eos/user/c/ccosby/miniAOD/2018/DarkPhoton/crab_20200412_052026/200412_032038/0000/miniaod_1-26.root\n'
p79
aS'root://eosuser.cern.ch//eos/user/c/ccosby/miniAOD/2018/DarkPhoton/crab_20200412_052026/200412_032038/0000/miniaod_1-28.root\n'
p80
aS'root://eosuser.cern.ch//eos/user/c/ccosby/miniAOD/2018/DarkPhoton/crab_20200412_052026/200412_032038/0000/miniaod_1-30.root\n'
p81
aS'root://eosuser.cern.ch//eos/user/c/ccosby/miniAOD/2018/DarkPhoton/crab_20200412_052026/200412_032038/0000/miniaod_1-36.root\n'
p82
aS'root://eosuser.cern.ch//eos/user/c/ccosby/miniAOD/2018/DarkPhoton/crab_20200412_052026/200412_032038/0000/miniaod_1-38.root\n'
p83
aS'root://eosuser.cern.ch//eos/user/c/ccosby/miniAOD/2018/DarkPhoton/crab_20200412_052026/200412_032038/0000/miniaod_1-4.root\n'
p84
aS'root://eosuser.cern.ch//eos/user/c/ccosby/miniAOD/2018/DarkPhoton/crab_20200412_052026/200412_032038/0000/miniaod_1-40.root\n'
p85
aS'root://eosuser.cern.ch//eos/user/c/ccosby/miniAOD/2018/DarkPhoton/crab_20200412_052026/200412_032038/0000/miniaod_1-41.root\n'
p86
aS'root://eosuser.cern.ch//eos/user/c/ccosby/miniAOD/2018/DarkPhoton/crab_20200412_052026/200412_032038/0000/miniaod_1-44.root\n'
p87
aS'root://eosuser.cern.ch//eos/user/c/ccosby/miniAOD/2018/DarkPhoton/crab_20200412_052026/200412_032038/0000/miniaod_1-49.root\n'
p88
aS'root://eosuser.cern.ch//eos/user/c/ccosby/miniAOD/2018/DarkPhoton/crab_20200412_052026/200412_032038/0000/miniaod_1-51.root\n'
p89
aS'root://eosuser.cern.ch//eos/user/c/ccosby/miniAOD/2018/DarkPhoton/crab_20200412_052026/200412_032038/0000/miniaod_1-53.root\n'
p90
aS'root://eosuser.cern.ch//eos/user/c/ccosby/miniAOD/2018/DarkPhoton/crab_20200412_052026/200412_032038/0000/miniaod_1-54.root\n'
p91
aS'root://eosuser.cern.ch//eos/user/c/ccosby/miniAOD/2018/DarkPhoton/crab_20200412_052026/200412_032038/0000/miniaod_1-56.root\n'
p92
aS'root://eosuser.cern.ch//eos/user/c/ccosby/miniAOD/2018/DarkPhoton/crab_20200412_052026/200412_032038/0000/miniaod_1-7.root\n'
p93
aS'root://eosuser.cern.ch//eos/user/c/ccosby/miniAOD/2018/DarkPhoton/crab_20200412_052026/200412_032038/0000/miniaod_1-8.root\n'
p94
aS'root://eosuser.cern.ch//eos/user/c/ccosby/miniAOD/2018/DarkPhoton/crab_20200412_052026/200412_032038/0000/miniaod_10.root\n'
p95
aS'root://eosuser.cern.ch//eos/user/c/ccosby/miniAOD/2018/DarkPhoton/crab_20200412_052026/200412_032038/0000/miniaod_17.root\n'
p96
aS'root://eosuser.cern.ch//eos/user/c/ccosby/miniAOD/2018/DarkPhoton/crab_20200412_052026/200412_032038/0000/miniaod_20.root\n'
p97
aS'root://eosuser.cern.ch//eos/user/c/ccosby/miniAOD/2018/DarkPhoton/crab_20200412_052026/200412_032038/0000/miniaod_20.root\n'
p98
asbsg32
g3
(g9
g5
NtRp99
(dp100
g12
I00
sS'pyCfgParams'
p101
(lp102
S'isMC=True'
p103
aS'useWeights=False'
p104
aS'xsec=1.00'
p105
aS'addEventInfo=True'
p106
asg13
S''
sg14
g15
((lp107
S'psetName'
p108
aS'pluginName'
p109
ag101
aS'allowUndistributedCMSSW'
p110
atRp111
sg20
g32
sg21
(dp112
sg109
S'Analysis'
p113
sg23
g15
((ltRp114
sg110
I01
sg108
S'../../test/tree_cfg.py'
p115
sg26
NsbsbsS'voGroup'
p116
S''
sS'Server'
p117
S'cmsweb.cern.ch'
p118
sS'instance'
p119
S'prod'
p120
sS'RequestName'
p121
V200416_213740:ccosby_crab_20200416_233733
p122
sS'voRole'
p123
S'NULL'
p124
sS'Port'
p125
S''
s.