ccopy_reg
_reconstructor
p0
(cFWCore.ParameterSet.Config
Process
p1
c__builtin__
object
p2
Ntp3
Rp4
(dp5
S'mmtree'
p6
g0
(cFWCore.ParameterSet.Modules
EDAnalyzer
p7
g2
Ntp8
Rp9
(dp10
S'_isFrozen'
p11
I00
sS'_lineNumber'
p12
I373
sS'filterresults'
p13
g0
(cFWCore.ParameterSet.Types
InputTag
p14
g2
Ntp15
Rp16
(dp17
g11
I00
sS'_ParameterTypeBase__isTracked'
p18
I01
sS'_isModified'
p19
I00
sS'_InputTag__moduleLabel'
p20
S'TriggerResults'
p21
sS'_InputTag__processName'
p22
S'PAT'
p23
sS'_InputTag__productInstance'
p24
S''
p25
sbsS'applyDimuonFilter'
p26
g0
(cFWCore.ParameterSet.Types
bool
p27
g2
Ntp28
Rp29
(dp30
g11
I00
sg18
I01
sS'_value'
p31
I01
sg19
I00
sbsS'applyHLTFilter'
p32
g0
(g27
g2
Ntp33
Rp34
(dp35
g11
I00
sg18
I01
sg31
I00
sg19
I00
sbsS'gens'
p36
g0
(g14
g2
Ntp37
Rp38
(dp39
g11
I00
sg18
I01
sg19
I00
sg20
S'prunedGenParticles'
p40
sg22
g25
sg24
g25
sbsS'triggerresults'
p41
g0
(g14
g2
Ntp42
Rp43
(dp44
g11
I00
sg18
I01
sg19
I00
sg20
g21
sg22
S'HLT'
p45
sg24
g25
sbsS'AlgInputTag'
p46
g0
(g14
g2
Ntp47
Rp48
(dp49
g11
I00
sg18
I01
sg19
I00
sg20
S'gtStage2Digis'
p50
sg22
g25
sg24
g25
sbsS'useLHEWeights'
p51
g0
(g27
g2
Ntp52
Rp53
(dp54
g11
I00
sg18
I01
sg31
I00
sg19
I00
sbsS'geneventinfo'
p55
g0
(g14
g2
Ntp56
Rp57
(dp58
g11
I00
sg18
I01
sg19
I00
sg20
S'generator'
p59
sg22
g25
sg24
g25
sbsS'DumpTrigSummary'
p60
g0
(g27
g2
Ntp61
Rp62
(dp63
g11
I00
sg18
I01
sg31
I01
sg19
I00
sbsS'_Parameterizable__parameterNames'
p64
(lp65
g13
ag26
ag32
aS'vertices'
p66
aS'filterHToMuMu'
p67
ag46
aS'triggerobjects'
p68
ag51
ag55
ag60
aS'badhadron'
p69
aS'DumpRecord'
p70
aS'pileupinfo'
p71
aS'l1Seeds'
p72
aS'muons'
p73
aS'xsec'
p74
ag41
aS'addEventInfo'
p75
aS'met'
p76
aS'jets'
p77
aS'DumpTrigResults'
p78
aS'beamSpot'
p79
aS'ExtInputTag'
p80
aS'useMediumID2016'
p81
aS'genlumiheader'
p82
ag36
aS'badmuon'
p83
aS'ReadPrescalesFromFile'
p84
aS'isMC'
p85
asg69
g0
(g14
g2
Ntp86
Rp87
(dp88
g11
I00
sg18
I01
sg19
I00
sg20
S'BadChargedCandidateFilter'
p89
sg22
g25
sg24
g25
sbsS'_filename'
p90
S'/afs/cern.ch/user/c/ccosby/lowMassZPrime/triggerStudy/CMSSW_10_2_3/src/DileptonAnalysis/AnalysisStep/test/tree_cfg.py'
p91
sg80
g0
(g14
g2
Ntp92
Rp93
(dp94
g11
I00
sg18
I01
sg19
I00
sg20
g50
sg22
g25
sg24
g25
sbsg70
g0
(g27
g2
Ntp95
Rp96
(dp97
g11
I00
sg18
I01
sg31
I01
sg19
I00
sbsg71
g0
(g14
g2
Ntp98
Rp99
(dp100
g11
I00
sg18
I01
sg19
I00
sg20
S'slimmedAddPileupInfo'
p101
sg22
g25
sg24
g25
sbsg72
g0
(cFWCore.ParameterSet.Types
vstring
p102
c__builtin__
list
p103
(lp104
S'L1_DoubleMu_12_5'
p105
aS'L1_DoubleMu_12_8'
p106
aS'L1_DoubleMu_13_6'
p107
aS'L1_DoubleMu_15_5'
p108
aS'L1_DoubleMu_15_7'
p109
aS'L1_TripleMu_4_4_4'
p110
aS'L1_TripleMu_5_0_0'
p111
aS'L1_TripleMu_5_3_3'
p112
aS'L1_TripleMu_5_5_3'
p113
aS'L1_QuadMu0'
p114
aS'L1_DoubleMu0er1p5_SQ_OS_dR_Max1p4'
p115
aS'L1_DoubleMu4p5er2p0_SQ_OS_Mass7to18'
p116
aS'L1_DoubleMu4_SQ_OS_dR_Max1p2'
p117
aS'L1_DoubleMu5_SQ_OS_Mass7to18'
p118
aS'L1_DoubleMu_20_2_SQ_Mass_Max20'
p119
aS'L1_DoubleMu0er1p4_SQ_OS_dR_Max1p4'
p120
aS'L1_DoubleMu4p5_SQ_OS_dR_Max1p2'
p121
aS'L1_DoubleMu6_SQ_OS'
p122
aS'L1_DoubleMu0er1p5_SQ_dR_Max1p4'
p123
aS'L1_DoubleMu0er2_SQ_dR_Max1p4'
p124
aS'L1_DoubleMu0_SQ'
p125
atp126
Rp127
(dp128
g11
I00
sg18
I01
sg19
I00
sS'_nPerLine'
p129
I1
sbsg73
g0
(g14
g2
Ntp130
Rp131
(dp132
g11
I00
sg18
I01
sg19
I00
sg20
S'slimmedMuons'
p133
sg22
g25
sg24
g25
sbsg74
g0
(cFWCore.ParameterSet.Types
double
p134
g2
Ntp135
Rp136
(dp137
g11
I00
sg18
I01
sg31
F0.001
sg19
I00
sbsg77
g0
(g14
g2
Ntp138
Rp139
(dp140
g11
I00
sg18
I01
sg19
I00
sg20
S'slimmedJets'
p141
sg22
g25
sg24
g25
sbsg75
g0
(g27
g2
Ntp142
Rp143
(dp144
g11
I00
sg18
I01
sg31
I01
sg19
I00
sbsg76
g0
(g14
g2
Ntp145
Rp146
(dp147
g11
I00
sg18
I01
sg19
I00
sg20
S'slimmedMETs'
p148
sg22
g25
sg24
g25
sbsS'_Labelable__label'
p149
g6
sg67
g0
(g27
g2
Ntp150
Rp151
(dp152
g11
I00
sg18
I01
sg31
I00
sg19
I00
sbsg78
g0
(g27
g2
Ntp153
Rp154
(dp155
g11
I00
sg18
I01
sg31
I01
sg19
I00
sbsg79
g0
(g14
g2
Ntp156
Rp157
(dp158
g11
I00
sg18
I01
sg19
I00
sg20
S'offlineBeamSpot'
p159
sg22
g25
sg24
g25
sbsS'_TypedParameterizable__type'
p160
S'TreeMaker'
p161
sg19
I00
sg68
g0
(g14
g2
Ntp162
Rp163
(dp164
g11
I00
sg18
I01
sg19
I00
sg20
S'slimmedPatTrigger'
p165
sg22
g25
sg24
g25
sbsg81
g0
(g27
g2
Ntp166
Rp167
(dp168
g11
I00
sg18
I01
sg31
I00
sg19
I00
sbsg82
g0
(g14
g2
Ntp169
Rp170
(dp171
g11
I00
sg18
I01
sg19
I00
sg20
g59
sg22
g25
sg24
g25
sbsg66
g0
(g14
g2
Ntp172
Rp173
(dp174
g11
I00
sg18
I01
sg19
I00
sg20
S'offlineSlimmedPrimaryVertices'
p175
sg22
g25
sg24
g25
sbsg83
g0
(g14
g2
Ntp176
Rp177
(dp178
g11
I00
sg18
I01
sg19
I00
sg20
S'BadPFMuonFilter'
p179
sg22
g25
sg24
g25
sbsg84
g0
(g27
g2
Ntp180
Rp181
(dp182
g11
I00
sg18
I01
sg31
I00
sg19
I00
sbsg85
g0
(g27
g2
Ntp183
Rp184
(dp185
g11
I00
sg18
I01
sg31
I00
sg19
I00
sbsbsS'CaloGeometryBuilder'
p186
g0
(cFWCore.ParameterSet.Modules
ESProducer
p187
g2
Ntp188
Rp189
(dp190
g64
(lp191
S'SelectedCalos'
p192
asg11
I00
sg19
I00
sg12
I53
sg90
S'/cvmfs/cms.cern.ch/slc7_amd64_gcc700/cms/cmssw/CMSSW_10_2_3/python/FWCore/ParameterSet/Modules.py'
p193
sg192
g0
(g102
g103
(lp194
S'HCAL'
p195
aS'ZDC'
p196
aS'CASTOR'
p197
aS'EcalBarrel'
p198
aS'EcalEndcap'
p199
aS'EcalPreshower'
p200
aS'TOWER'
p201
atp202
Rp203
(dp204
g11
I00
sg18
I01
sg19
I00
sg129
I1
sbsg149
g186
sg160
g186
sbsS'_Process__sequences'
p205
(dp206
S'metfilters'
p207
g0
(cFWCore.ParameterSet.SequenceTypes
Sequence
p208
g2
Ntp209
Rp210
(dp211
g11
I00
sS'_seq'
p212
g0
(cFWCore.ParameterSet.SequenceTypes
_SequenceCollection
p213
g2
Ntp214
Rp215
(dp216
S'_collection'
p217
(lp218
g0
(cFWCore.ParameterSet.Modules
EDFilter
p219
g2
Ntp220
Rp221
(dp222
g64
(lp223
S'filter'
p224
aS'src'
p225
aS'cut'
p226
asg11
I00
sg226
g0
(cFWCore.ParameterSet.Types
string
p227
g2
Ntp228
Rp229
(dp230
g11
I00
sg18
I01
sg31
S'!isFake && ndof > 4 && abs(z) <= 24 && position.Rho <= 2'
p231
sg19
I00
sbsg19
I00
sg225
g0
(g14
g2
Ntp232
Rp233
(dp234
g11
I00
sg18
I01
sg19
I00
sg20
g175
sg22
g25
sg24
g25
sbsg90
g91
sg224
g0
(g27
g2
Ntp235
Rp236
(dp237
g11
I00
sg18
I01
sg31
I01
sg19
I00
sbsg12
I246
sg149
S'goodVertices'
p238
sg160
S'VertexSelector'
p239
sbag0
(g219
g2
Ntp240
Rp241
(dp242
g64
(lp243
S'innerTrackRelErr'
p244
aS'PFCandidates'
p245
aS'filterType'
p246
aS'maxDR'
p247
aS'algo'
p248
aS'taggingMode'
p249
aS'segmentCompatibility'
p250
aS'minMuonTrackRelErr'
p251
aS'minMuonPt'
p252
ag73
aS'minPtDiffRel'
p253
asg11
I00
sg244
g0
(g134
g2
Ntp254
Rp255
(dp256
g11
I00
sg18
I01
sg31
F1.0
sg19
I00
sbsg19
I01
sg90
S'/cvmfs/cms.cern.ch/slc7_amd64_gcc700/cms/cmssw/CMSSW_10_2_3/python/RecoMET/METFilters/BadPFMuonFilter_cfi.py'
p257
sg246
g0
(g227
g2
Ntp258
Rp259
(dp260
g11
I00
sg18
I01
sg31
S'BadPFMuon'
p261
sg19
I00
sbsg245
g0
(g14
g2
Ntp262
Rp263
(dp264
g11
I00
sg18
I01
sg19
I00
sg20
S'packedPFCandidates'
p265
sg22
g25
sg24
g25
sbsg250
g0
(g134
g2
Ntp266
Rp267
(dp268
g11
I00
sg18
I01
sg31
F0.3
sg19
I00
sbsg253
g0
(g134
g2
Ntp269
Rp270
(dp271
g11
I00
sg18
I01
sg31
F0.0
sg19
I00
sbsg12
I15
sg248
g0
(cFWCore.ParameterSet.Types
int32
p272
g2
Ntp273
Rp274
(dp275
g11
I00
sg18
I01
sg31
I14
sg19
I00
sbsg249
g0
(g27
g2
Ntp276
Rp277
(dp278
g11
I00
sg18
I01
sg31
I01
sg19
I00
sbsg149
g179
sg247
g0
(g134
g2
Ntp279
Rp280
(dp281
g11
I00
sg18
I01
sg31
F0.001
sg19
I00
sbsg251
g0
(g134
g2
Ntp282
Rp283
(dp284
g11
I00
sg18
I01
sg31
F2.0
sg19
I00
sbsg252
g0
(g134
g2
Ntp285
Rp286
(dp287
g11
I00
sg18
I01
sg31
I100
sg19
I00
sbsg73
g0
(g14
g2
Ntp288
Rp289
(dp290
g11
I00
sg18
I01
sg19
I00
sg20
g133
sg22
g25
sg24
g25
sbsg160
S'BadParticleFilter'
p291
sbag0
(g219
g2
Ntp292
Rp293
(dp294
g64
(lp295
g244
ag245
ag249
ag246
ag247
ag250
ag251
ag252
ag73
ag253
asg11
I00
sg244
g0
(g134
g2
Ntp296
Rp297
(dp298
g11
I00
sg18
I01
sg31
F1.0
sg19
I00
sbsg19
I01
sg90
S'/cvmfs/cms.cern.ch/slc7_amd64_gcc700/cms/cmssw/CMSSW_10_2_3/python/RecoMET/METFilters/BadChargedCandidateFilter_cfi.py'
p299
sg246
g0
(g227
g2
Ntp300
Rp301
(dp302
g11
I00
sg18
I01
sg31
S'BadChargedCandidate'
p303
sg19
I00
sbsg245
g0
(g14
g2
Ntp304
Rp305
(dp306
g11
I00
sg18
I01
sg19
I00
sg20
g265
sg22
g25
sg24
g25
sbsg250
g0
(g134
g2
Ntp307
Rp308
(dp309
g11
I00
sg18
I01
sg31
F0.3
sg19
I00
sbsg12
I14
sg253
g0
(g134
g2
Ntp310
Rp311
(dp312
g11
I00
sg18
I01
sg31
F1e-05
sg19
I00
sbsg249
g0
(g27
g2
Ntp313
Rp314
(dp315
g11
I00
sg18
I01
sg31
I01
sg19
I00
sbsg149
g89
sg247
g0
(g134
g2
Ntp316
Rp317
(dp318
g11
I00
sg18
I01
sg31
F1e-05
sg19
I00
sbsg251
g0
(g134
g2
Ntp319
Rp320
(dp321
g11
I00
sg18
I01
sg31
F2.0
sg19
I00
sbsg252
g0
(g134
g2
Ntp322
Rp323
(dp324
g11
I00
sg18
I01
sg31
F100.0
sg19
I00
sbsg73
g0
(g14
g2
Ntp325
Rp326
(dp327
g11
I00
sg18
I01
sg19
I00
sg20
g133
sg22
g25
sg24
g25
sbsg160
g291
sbasbsg149
g207
sg19
I00
sS'_tasks'
p328
g0
(cFWCore.ParameterSet.OrderedSet
OrderedSet
p329
g2
Ntp330
Rp331
(dp332
S'map'
p333
(dp334
sS'end'
p335
(lp336
Nag336
ag336
asbsbssS'_Process__source'
p337
g0
(cFWCore.ParameterSet.Modules
Source
p338
g2
Ntp339
Rp340
(dp341
g64
(lp342
S'skipEvents'
p343
aS'fileNames'
p344
asg11
I00
sg19
I00
sg12
I193
sg90
g193
sg343
g0
(cFWCore.ParameterSet.Types
uint32
p345
g2
Ntp346
Rp347
(dp348
g11
I00
sg18
I00
sg31
I0
sg19
I00
sbsg344
g0
(g102
g103
(lp349
tp350
Rp351
(dp352
g11
I00
sg18
I00
sg19
I00
sg129
I1
sbsg160
S'PoolSource'
p353
sbsS'XMLFromDBSource'
p354
g0
(g187
g2
Ntp355
Rp356
(dp357
g64
(lp358
S'rootDDName'
p359
aS'label'
p360
asg11
I00
sg19
I00
sg12
I53
sg90
g193
sg359
g0
(g227
g2
Ntp361
Rp362
(dp363
g11
I00
sg18
I01
sg31
S'cms:OCMS'
p364
sg19
I00
sbsg360
g0
(g227
g2
Ntp365
Rp366
(dp367
g11
I00
sg18
I01
sg31
S'Extended'
p368
sg19
I00
sbsg149
g354
sg160
S'XMLIdealGeometryESProducer'
p369
sbsS'TFileService'
p370
g0
(cFWCore.ParameterSet.Modules
Service
p371
g2
Ntp372
Rp373
(dp374
g64
(lp375
S'fileName'
p376
asg11
I00
sS'_inProcess'
p377
I01
sg19
I00
sg12
I11
sg90
g193
sg376
g0
(g227
g2
Ntp378
Rp379
(dp380
g11
I00
sg18
I01
sg31
S'tree.root'
p381
sg19
I00
sbsg160
g370
sbsS'hcalDDDSimConstants'
p382
g0
(g187
g2
Ntp383
Rp384
(dp385
g64
(lp386
S'appendToDataLabel'
p387
asg11
I00
sg387
g0
(g227
g2
Ntp388
Rp389
(dp390
g11
I00
sg18
I01
sg31
g25
sg19
I00
sbsg19
I00
sg12
I53
sg90
g193
sg149
g382
sg160
S'HcalDDDSimConstantsESModule'
p391
sbsS'source'
p392
g340
sS'RandomNumberGeneratorService'
p393
g0
(g371
g2
Ntp394
Rp395
(dp396
g64
(lp397
S'correctedMuons'
p398
asg11
I00
sg377
I01
sg19
I00
sg12
I11
sg90
g193
sg398
g0
(cFWCore.ParameterSet.Types
PSet
p399
g2
Ntp400
Rp401
(dp402
g11
I00
sg18
I01
sg19
I00
sS'initialSeed'
p403
g0
(g345
g2
Ntp404
Rp405
(dp406
g11
I00
sg18
I00
sg31
I1
sg19
I00
sbsg64
(lp407
g403
aS'engineName'
p408
asg408
g0
(g227
g2
Ntp409
Rp410
(dp411
g11
I00
sg18
I00
sg31
S'TRandom3'
p412
sg19
I00
sbsbsg160
g393
sbsS'CaloTowerGeometryFromDBEP'
p413
g0
(g187
g2
Ntp414
Rp415
(dp416
g64
(lp417
S'applyAlignment'
p418
asg11
I00
sg19
I00
sg12
I53
sg90
g193
sg149
g413
sg418
g0
(g27
g2
Ntp419
Rp420
(dp421
g11
I00
sg18
I01
sg31
I00
sg19
I00
sbsg160
g413
sbsS'_Process__InExtendCall'
p422
I00
sS'_Process__producers'
p423
(dp424
g398
g0
(cFWCore.ParameterSet.Modules
EDProducer
p425
g2
Ntp426
Rp427
(dp428
g64
(lp429
g85
ag225
aS'data'
p430
aS'correct'
p431
ag36
asg11
I00
sg19
I00
sg225
g0
(g14
g2
Ntp432
Rp433
(dp434
g11
I00
sg18
I01
sg19
I00
sg20
g133
sg22
g25
sg24
g25
sbsg90
g91
sg36
g0
(g14
g2
Ntp435
Rp436
(dp437
g11
I00
sg18
I01
sg19
I00
sg20
g40
sg22
g25
sg24
g25
sbsg149
g398
sg12
I255
sg85
g0
(g27
g2
Ntp438
Rp439
(dp440
g11
I00
sg18
I01
sg31
I00
sg19
I00
sbsg430
g0
(g227
g2
Ntp441
Rp442
(dp443
g11
I00
sg18
I01
sg31
S'../data/Rochester'
p444
sg19
I00
sbsg431
g0
(g27
g2
Ntp445
Rp446
(dp447
g11
I00
sg18
I01
sg31
I01
sg19
I00
sbsg160
S'RochesterCorrectedMuonProducer'
p448
sbsg50
g0
(g425
g2
Ntp449
Rp450
(dp451
g64
(lp452
S'Setup'
p453
aS'FedIds'
p454
aS'InputLabel'
p455
asg11
I00
sg19
I01
sg12
I6
sg90
S'/cvmfs/cms.cern.ch/slc7_amd64_gcc700/cms/cmssw/CMSSW_10_2_3/python/EventFilter/L1TRawToDigi/gtStage2Digis_cfi.py'
p456
sg453
g0
(g227
g2
Ntp457
Rp458
(dp459
g11
I00
sg18
I01
sg31
S'stage2::GTSetup'
p460
sg19
I00
sbsg455
g0
(g14
g2
Ntp461
Rp462
(dp463
g11
I00
sg18
I01
sg19
I00
sg20
S'hltFEDSelectorL1'
p464
sg22
g25
sg24
g25
sbsg149
g50
sg454
g0
(cFWCore.ParameterSet.Types
vint32
p465
g103
(lp466
I1404
atp467
Rp468
(dp469
g11
I00
sg18
I01
sg19
I00
sbsg160
S'L1TRawToDigi'
p470
sbsS'randomEngineStateProducer'
p471
g0
(g425
g2
Ntp472
Rp473
(dp474
g64
(lp475
sg11
I00
sg19
I00
sg12
I162
sg90
S'/cvmfs/cms.cern.ch/slc7_amd64_gcc700/cms/cmssw/CMSSW_10_2_3/python/IOMC/RandomEngine/IOMC_cff.py'
p476
sg149
g471
sg160
S'RandomEngineStateProducer'
p477
sbssS'siPixelQualityESProducer'
p478
g0
(g187
g2
Ntp479
Rp480
(dp481
g64
(lp482
S'ListOfRecordToMerge'
p483
asg11
I00
sg19
I01
sg12
I53
sg90
g193
sg483
g0
(cFWCore.ParameterSet.Types
VPSet
p484
g103
(lp485
g0
(g399
g2
Ntp486
Rp487
(dp488
g11
I00
sg18
I01
sg19
I00
sS'record'
p489
g0
(g227
g2
Ntp490
Rp491
(dp492
g11
I00
sg18
I01
sg31
S'SiPixelQualityFromDbRcd'
p493
sg19
I00
sbsS'tag'
p494
g0
(g227
g2
Ntp495
Rp496
(dp497
g11
I00
sg18
I01
sg31
g25
sg19
I00
sbsg64
(lp498
g489
ag494
asbag0
(g399
g2
Ntp499
Rp500
(dp501
g11
I00
sg18
I01
sg19
I00
sg489
g0
(g227
g2
Ntp502
Rp503
(dp504
g11
I00
sg18
I01
sg31
S'SiPixelDetVOffRcd'
p505
sg19
I00
sbsg494
g0
(g227
g2
Ntp506
Rp507
(dp508
g11
I00
sg18
I01
sg31
g25
sg19
I00
sbsg64
(lp509
g489
ag494
asbatp510
Rp511
(dp512
g11
I00
sg18
I01
sg19
I00
sg129
I1
sbsg149
g478
sg160
S'SiPixelQualityESProducer'
p513
sbsS'GlobalTag'
p514
g0
(cFWCore.ParameterSet.Modules
ESSource
p515
g2
Ntp516
Rp517
(dp518
g64
(lp519
S'DBParameters'
p520
aS'connect'
p521
aS'globaltag'
p522
aS'RefreshEachRun'
p523
aS'pfnPrefix'
p524
aS'snapshotTime'
p525
aS'toGet'
p526
aS'pfnPostfix'
p527
aS'RefreshAlways'
p528
aS'ReconnectEachRun'
p529
aS'RefreshOpenIOVs'
p530
aS'DumpStat'
p531
asg11
I00
sg90
S'/cvmfs/cms.cern.ch/slc7_amd64_gcc700/cms/cmssw/CMSSW_10_2_3/python/CondCore/ESSources/CondDBESSource_cfi.py'
p532
sg19
I01
sg522
g0
(g227
g2
Ntp533
Rp534
(dp535
g11
I00
sg18
I01
sg31
S'102X_dataRun2_v4'
p536
sg19
I01
sbsg523
g0
(g27
g2
Ntp537
Rp538
(dp539
g11
I00
sg18
I00
sg31
I00
sg19
I00
sbsg524
g0
(g227
g2
Ntp540
Rp541
(dp542
g11
I00
sg18
I00
sg31
g25
sg19
I00
sbsg525
g0
(g227
g2
Ntp543
Rp544
(dp545
g11
I00
sg18
I01
sg31
g25
sg19
I00
sbsg526
g0
(g484
g103
(lp546
tp547
Rp548
(dp549
g11
I00
sg18
I01
sg19
I00
sg129
I1
sbsg527
g0
(g227
g2
Ntp550
Rp551
(dp552
g11
I00
sg18
I00
sg31
g25
sg19
I00
sbsg520
g0
(g399
g2
Ntp553
Rp554
(dp555
g11
I00
sg18
I01
sS'authenticationPath'
p556
g0
(g227
g2
Ntp557
Rp558
(dp559
g11
I00
sg18
I00
sg31
g25
sg19
I00
sbsg19
I00
sS'messageLevel'
p560
g0
(g272
g2
Ntp561
Rp562
(dp563
g11
I00
sg18
I00
sg31
I0
sg19
I00
sbsg64
(lp564
g560
aS'security'
p565
aS'authenticationSystem'
p566
ag556
asg565
g0
(g227
g2
Ntp567
Rp568
(dp569
g11
I00
sg18
I00
sg31
g25
sg19
I00
sbsg566
g0
(g272
g2
Ntp570
Rp571
(dp572
g11
I00
sg18
I00
sg31
I0
sg19
I00
sbsbsg528
g0
(g27
g2
Ntp573
Rp574
(dp575
g11
I00
sg18
I00
sg31
I00
sg19
I00
sbsg12
I19
sg521
g0
(g227
g2
Ntp576
Rp577
(dp578
g11
I00
sg18
I01
sg31
S'frontier://FrontierProd/CMS_CONDITIONS'
p579
sg19
I00
sbsg529
g0
(g27
g2
Ntp580
Rp581
(dp582
g11
I00
sg18
I00
sg31
I00
sg19
I00
sbsg149
g514
sg530
g0
(g27
g2
Ntp583
Rp584
(dp585
g11
I00
sg18
I00
sg31
I00
sg19
I00
sbsg531
g0
(g27
g2
Ntp586
Rp587
(dp588
g11
I00
sg18
I00
sg31
I00
sg19
I00
sbsg160
S'PoolDBESSource'
p589
sbsS'TransientTrackBuilderESProducer'
p590
g0
(g187
g2
Ntp591
Rp592
(dp593
g64
(lp594
S'ComponentName'
p595
asg11
I00
sg19
I00
sg12
I53
sg90
g193
sg595
g0
(g227
g2
Ntp596
Rp597
(dp598
g11
I00
sg18
I01
sg31
S'TransientTrackBuilder'
p599
sg19
I00
sbsg149
g590
sg160
g590
sbsS'_Process__endpaths'
p600
g0
(cFWCore.ParameterSet.DictTypes
SortedKeysDict
p601
c__builtin__
dict
p602
(dp603
tp604
Rp605
(dp606
S'list'
p607
(lp608
sbsS'p'
p609
g0
(cFWCore.ParameterSet.SequenceTypes
Path
p610
g2
Ntp611
Rp612
(dp613
g11
I00
sg212
g0
(g213
g2
Ntp614
Rp615
(dp616
g217
(lp617
g210
ag9
asbsg149
g609
sg19
I00
sg328
g0
(g329
g2
Ntp618
Rp619
(dp620
g333
(dp621
sg335
(lp622
Nag622
ag622
asbsbsS'MuonDetLayerGeometryESProducer'
p623
g0
(g187
g2
Ntp624
Rp625
(dp626
g64
(lp627
sg11
I00
sg19
I00
sg12
I53
sg90
g193
sg149
g623
sg160
g623
sbsS'EcalEndcapGeometryFromDBEP'
p628
g0
(g187
g2
Ntp629
Rp630
(dp631
g64
(lp632
g418
asg11
I00
sg19
I01
sg12
I53
sg90
g193
sg149
g628
sg418
g0
(g27
g2
Ntp633
Rp634
(dp635
g11
I00
sg18
I01
sg31
I01
sg19
I01
sbsg160
g628
sbsS'MessageLogger'
p636
g0
(g371
g2
Ntp637
Rp638
(dp639
g11
I00
sS'suppressInfo'
p640
g0
(g102
g103
(lp641
tp642
Rp643
(dp644
g11
I00
sg18
I00
sg19
I00
sg129
I1
sbsS'suppressDebug'
p645
g0
(g102
g103
(lp646
tp647
Rp648
(dp649
g11
I00
sg18
I00
sg19
I00
sg129
I1
sbsS'cout'
p650
g0
(g399
g2
Ntp651
Rp652
(dp653
g11
I00
sg18
I00
sS'placeholder'
p654
g0
(g27
g2
Ntp655
Rp656
(dp657
g11
I00
sg18
I00
sg31
I01
sg19
I00
sbsg19
I00
sg64
(lp658
g654
asbsg12
I11
sS'debugModules'
p659
g0
(g102
g103
(lp660
tp661
Rp662
(dp663
g11
I00
sg18
I00
sg19
I00
sg129
I1
sbsg160
g636
sS'fwkJobReports'
p664
g0
(g102
g103
(lp665
S'FrameworkJobReport'
p666
atp667
Rp668
(dp669
g11
I00
sg18
I00
sg19
I00
sg129
I1
sbsg64
(lp670
g640
aS'debugs'
p671
ag645
ag650
aS'cerr_stats'
p672
aS'warnings'
p673
aS'default'
p674
aS'statistics'
p675
aS'cerr'
p676
ag666
aS'suppressWarning'
p677
aS'errors'
p678
aS'destinations'
p679
ag659
aS'infos'
p680
aS'categories'
p681
ag664
asg675
g0
(g102
g103
(lp682
g672
atp683
Rp684
(dp685
g11
I00
sg18
I00
sg19
I00
sg129
I1
sbsg90
g193
sg679
g0
(g102
g103
(lp686
g650
ag676
atp687
Rp688
(dp689
g11
I00
sg18
I00
sg19
I01
sg129
I1
sbsg671
g0
(g399
g2
Ntp690
Rp691
(dp692
g11
I00
sg18
I00
sg654
g0
(g27
g2
Ntp693
Rp694
(dp695
g11
I00
sg18
I00
sg31
I01
sg19
I00
sbsg19
I00
sg64
(lp696
g654
asbsg673
g0
(g399
g2
Ntp697
Rp698
(dp699
g11
I00
sg18
I00
sg654
g0
(g27
g2
Ntp700
Rp701
(dp702
g11
I00
sg18
I00
sg31
I01
sg19
I00
sbsg19
I00
sg64
(lp703
g654
asbsg678
g0
(g399
g2
Ntp704
Rp705
(dp706
g11
I00
sg18
I00
sg654
g0
(g27
g2
Ntp707
Rp708
(dp709
g11
I00
sg18
I00
sg31
I01
sg19
I00
sbsg19
I00
sg64
(lp710
g654
asbsg666
g0
(g399
g2
Ntp711
Rp712
(dp713
g11
I00
sg18
I00
sg19
I00
sg674
g0
(g399
g2
Ntp714
Rp715
(dp716
g11
I00
sg18
I00
sS'limit'
p717
g0
(g272
g2
Ntp718
Rp719
(dp720
g11
I00
sg18
I00
sg31
I0
sg19
I00
sbsg19
I00
sg64
(lp721
g717
asbsS'FwkJob'
p722
g0
(g399
g2
Ntp723
Rp724
(dp725
g11
I00
sg18
I00
sg19
I00
sg717
g0
(g272
g2
Ntp726
Rp727
(dp728
g11
I00
sg18
I00
sg31
I10000000
sg19
I00
sbsg64
(lp729
S'optionalPSet'
p730
ag717
asg730
g0
(g27
g2
Ntp731
Rp732
(dp733
g11
I00
sg18
I00
sg31
I01
sg19
I00
sbsbsg64
(lp734
g674
ag730
ag722
asg730
g0
(g27
g2
Ntp735
Rp736
(dp737
g11
I00
sg18
I00
sg31
I01
sg19
I00
sbsbsg677
g0
(g102
g103
(lp738
tp739
Rp740
(dp741
g11
I00
sg18
I00
sg19
I00
sg129
I1
sbsg680
g0
(g399
g2
Ntp742
Rp743
(dp744
g11
I00
sg18
I00
sg19
I00
sS'Root_NoDictionary'
p745
g0
(g399
g2
Ntp746
Rp747
(dp748
g11
I00
sg18
I00
sg19
I00
sg717
g0
(g272
g2
Ntp749
Rp750
(dp751
g11
I00
sg18
I00
sg31
I0
sg19
I00
sbsg64
(lp752
g730
ag717
asg730
g0
(g27
g2
Ntp753
Rp754
(dp755
g11
I00
sg18
I00
sg31
I01
sg19
I00
sbsbsg64
(lp756
g730
ag745
ag654
asg730
g0
(g27
g2
Ntp757
Rp758
(dp759
g11
I00
sg18
I00
sg31
I01
sg19
I00
sbsg654
g0
(g27
g2
Ntp760
Rp761
(dp762
g11
I00
sg18
I00
sg31
I01
sg19
I00
sbsbsg681
g0
(g102
g103
(lp763
g722
aS'FwkReport'
p764
aS'FwkSummary'
p765
ag745
atp766
Rp767
(dp768
g11
I00
sg18
I00
sg19
I00
sg129
I1
sbsg19
I01
sg672
g0
(g399
g2
Ntp769
Rp770
(dp771
g11
I00
sg18
I00
sg19
I00
sg730
g0
(g27
g2
Ntp772
Rp773
(dp774
g11
I00
sg18
I00
sg31
I01
sg19
I00
sbsg64
(lp775
S'threshold'
p776
aS'output'
p777
ag730
asg776
g0
(g227
g2
Ntp778
Rp779
(dp780
g11
I00
sg18
I00
sg31
S'WARNING'
p781
sg19
I00
sbsg777
g0
(g227
g2
Ntp782
Rp783
(dp784
g11
I00
sg18
I00
sg31
g676
sg19
I00
sbsbsg674
g0
(g399
g2
Ntp785
Rp786
(dp787
g11
I00
sg18
I00
sg19
I00
sg64
(lp788
sbsg377
I01
sg676
g0
(g399
g2
Ntp789
Rp790
(dp791
g11
I00
sg18
I00
sS'noTimeStamps'
p792
g0
(g27
g2
Ntp793
Rp794
(dp795
g11
I00
sg18
I00
sg31
I00
sg19
I00
sbsg764
g0
(g399
g2
Ntp796
Rp797
(dp798
g11
I00
sg18
I00
sg19
I01
sS'reportEvery'
p799
g0
(g272
g2
Ntp800
Rp801
(dp802
g11
I00
sg18
I00
sg31
I100
sg19
I01
sbsg717
g0
(g272
g2
Ntp803
Rp804
(dp805
g11
I00
sg18
I00
sg31
I10000000
sg19
I00
sbsg64
(lp806
g799
ag730
ag717
asg730
g0
(g27
g2
Ntp807
Rp808
(dp809
g11
I00
sg18
I00
sg31
I01
sg19
I00
sbsbsg19
I00
sg674
g0
(g399
g2
Ntp810
Rp811
(dp812
g11
I00
sg18
I00
sg717
g0
(g272
g2
Ntp813
Rp814
(dp815
g11
I00
sg18
I00
sg31
I10000000
sg19
I00
sbsg19
I00
sg64
(lp816
g717
asbsg745
g0
(g399
g2
Ntp817
Rp818
(dp819
g11
I00
sg18
I00
sg19
I00
sg717
g0
(g272
g2
Ntp820
Rp821
(dp822
g11
I00
sg18
I00
sg31
I0
sg19
I00
sbsg64
(lp823
g730
ag717
asg730
g0
(g27
g2
Ntp824
Rp825
(dp826
g11
I00
sg18
I00
sg31
I01
sg19
I00
sbsbsS'INFO'
p827
g0
(g399
g2
Ntp828
Rp829
(dp830
g11
I00
sg18
I00
sg717
g0
(g272
g2
Ntp831
Rp832
(dp833
g11
I00
sg18
I00
sg31
I0
sg19
I00
sbsg19
I00
sg64
(lp834
g717
asbsg730
g0
(g27
g2
Ntp835
Rp836
(dp837
g11
I00
sg18
I00
sg31
I01
sg19
I00
sbsg722
g0
(g399
g2
Ntp838
Rp839
(dp840
g11
I00
sg18
I00
sg19
I00
sg717
g0
(g272
g2
Ntp841
Rp842
(dp843
g11
I00
sg18
I00
sg31
I0
sg19
I00
sbsg64
(lp844
g730
ag717
asg730
g0
(g27
g2
Ntp845
Rp846
(dp847
g11
I00
sg18
I00
sg31
I01
sg19
I00
sbsbsg765
g0
(g399
g2
Ntp848
Rp849
(dp850
g11
I00
sg18
I00
sg19
I00
sg799
g0
(g272
g2
Ntp851
Rp852
(dp853
g11
I00
sg18
I00
sg31
I1
sg19
I00
sbsg717
g0
(g272
g2
Ntp854
Rp855
(dp856
g11
I00
sg18
I00
sg31
I10000000
sg19
I00
sbsg64
(lp857
g799
ag730
ag717
asg730
g0
(g27
g2
Ntp858
Rp859
(dp860
g11
I00
sg18
I00
sg31
I01
sg19
I00
sbsbsg64
(lp861
g827
ag792
ag764
ag674
ag745
ag776
ag722
ag765
ag730
asg776
g0
(g227
g2
Ntp862
Rp863
(dp864
g11
I00
sg18
I00
sg31
g827
sg19
I00
sbsbsbsS'_Process__services'
p865
(dp866
g636
g638
sS'DQMStore'
p867
g0
(g371
g2
Ntp868
Rp869
(dp870
g64
(lp871
S'referenceFileName'
p872
aS'verbose'
p873
aS'collateHistograms'
p874
aS'enableMultiThread'
p875
aS'forceResetOnBeginLumi'
p876
aS'LSbasedMode'
p877
aS'verboseQT'
p878
asg11
I00
sg377
I01
sg873
g0
(g272
g2
Ntp879
Rp880
(dp881
g11
I00
sg18
I00
sg31
I0
sg19
I00
sbsg874
g0
(g27
g2
Ntp882
Rp883
(dp884
g11
I00
sg18
I00
sg31
I00
sg19
I00
sbsg872
g0
(g227
g2
Ntp885
Rp886
(dp887
g11
I00
sg18
I00
sg31
g25
sg19
I00
sbsg875
g0
(g27
g2
Ntp888
Rp889
(dp890
g11
I00
sg18
I00
sg31
I00
sg19
I00
sbsg876
g0
(g27
g2
Ntp891
Rp892
(dp893
g11
I00
sg18
I00
sg31
I00
sg19
I00
sbsg12
I11
sg877
g0
(g27
g2
Ntp894
Rp895
(dp896
g11
I00
sg18
I00
sg31
I00
sg19
I00
sbsg90
g193
sg878
g0
(g272
g2
Ntp897
Rp898
(dp899
g11
I00
sg18
I00
sg31
I0
sg19
I00
sbsg160
g867
sg19
I00
sbsg393
g395
sg370
g373
ssg867
g869
sS'HcalTimeSlewEP'
p900
g0
(g515
g2
Ntp901
Rp902
(dp903
g64
(lp904
S'timeSlewParametersM3'
p905
aS'timeSlewParametersM2'
p906
ag387
asg11
I00
sg905
g0
(g484
g103
(lp907
g0
(g399
g2
Ntp908
Rp909
(dp910
g11
I00
sg18
I01
sS'tspar2'
p911
g0
(g134
g2
Ntp912
Rp913
(dp914
g11
I00
sg18
I01
sg31
F0.0
sg19
I00
sbsg19
I00
sS'tspar0'
p915
g0
(g134
g2
Ntp916
Rp917
(dp918
g11
I00
sg18
I01
sg31
F12.2999
sg19
I00
sbsS'tspar1'
p919
g0
(g134
g2
Ntp920
Rp921
(dp922
g11
I00
sg18
I01
sg31
F-2.19142
sg19
I00
sbsS'tspar1_siPM'
p923
g0
(g134
g2
Ntp924
Rp925
(dp926
g11
I00
sg18
I01
sg31
F0.0
sg19
I00
sbsS'cap'
p927
g0
(g134
g2
Ntp928
Rp929
(dp930
g11
I00
sg18
I01
sg31
F6.0
sg19
I00
sbsS'tspar0_siPM'
p931
g0
(g134
g2
Ntp932
Rp933
(dp934
g11
I00
sg18
I01
sg31
F0.0
sg19
I00
sbsg64
(lp935
g911
ag915
ag919
ag923
ag927
ag931
aS'tspar2_siPM'
p936
asg936
g0
(g134
g2
Ntp937
Rp938
(dp939
g11
I00
sg18
I01
sg31
F0.0
sg19
I00
sbsbag0
(g399
g2
Ntp940
Rp941
(dp942
g11
I00
sg18
I01
sg911
g0
(g134
g2
Ntp943
Rp944
(dp945
g11
I00
sg18
I01
sg31
F32.0
sg19
I00
sbsg19
I00
sg915
g0
(g134
g2
Ntp946
Rp947
(dp948
g11
I00
sg18
I01
sg31
F15.5
sg19
I00
sbsg919
g0
(g134
g2
Ntp949
Rp950
(dp951
g11
I00
sg18
I01
sg31
F-3.2
sg19
I00
sbsg923
g0
(g134
g2
Ntp952
Rp953
(dp954
g11
I00
sg18
I01
sg31
F0.0
sg19
I00
sbsg927
g0
(g134
g2
Ntp955
Rp956
(dp957
g11
I00
sg18
I01
sg31
F6.0
sg19
I00
sbsg931
g0
(g134
g2
Ntp958
Rp959
(dp960
g11
I00
sg18
I01
sg31
F0.0
sg19
I00
sbsg64
(lp961
g911
ag915
ag919
ag923
ag927
ag931
ag936
asg936
g0
(g134
g2
Ntp962
Rp963
(dp964
g11
I00
sg18
I01
sg31
F0.0
sg19
I00
sbsbag0
(g399
g2
Ntp965
Rp966
(dp967
g11
I00
sg18
I01
sg911
g0
(g134
g2
Ntp968
Rp969
(dp970
g11
I00
sg18
I01
sg31
F0.0
sg19
I00
sbsg19
I00
sg915
g0
(g134
g2
Ntp971
Rp972
(dp973
g11
I00
sg18
I01
sg31
F12.2999
sg19
I00
sbsg919
g0
(g134
g2
Ntp974
Rp975
(dp976
g11
I00
sg18
I01
sg31
F-2.19142
sg19
I00
sbsg923
g0
(g134
g2
Ntp977
Rp978
(dp979
g11
I00
sg18
I01
sg31
F0.0
sg19
I00
sbsg927
g0
(g134
g2
Ntp980
Rp981
(dp982
g11
I00
sg18
I01
sg31
F6.0
sg19
I00
sbsg931
g0
(g134
g2
Ntp983
Rp984
(dp985
g11
I00
sg18
I01
sg31
F0.0
sg19
I00
sbsg64
(lp986
g911
ag915
ag919
ag923
ag927
ag931
ag936
asg936
g0
(g134
g2
Ntp987
Rp988
(dp989
g11
I00
sg18
I01
sg31
F0.0
sg19
I00
sbsbag0
(g399
g2
Ntp990
Rp991
(dp992
g11
I00
sg18
I01
sg911
g0
(g134
g2
Ntp993
Rp994
(dp995
g11
I00
sg18
I01
sg31
F0.0
sg19
I00
sbsg19
I00
sg915
g0
(g134
g2
Ntp996
Rp997
(dp998
g11
I00
sg18
I01
sg31
F12.2999
sg19
I00
sbsg919
g0
(g134
g2
Ntp999
Rp1000
(dp1001
g11
I00
sg18
I01
sg31
F-2.19142
sg19
I00
sbsg923
g0
(g134
g2
Ntp1002
Rp1003
(dp1004
g11
I00
sg18
I01
sg31
F0.0
sg19
I00
sbsg927
g0
(g134
g2
Ntp1005
Rp1006
(dp1007
g11
I00
sg18
I01
sg31
F6.0
sg19
I00
sbsg931
g0
(g134
g2
Ntp1008
Rp1009
(dp1010
g11
I00
sg18
I01
sg31
F0.0
sg19
I00
sbsg64
(lp1011
g911
ag915
ag919
ag923
ag927
ag931
ag936
asg936
g0
(g134
g2
Ntp1012
Rp1013
(dp1014
g11
I00
sg18
I01
sg31
F0.0
sg19
I00
sbsbatp1015
Rp1016
(dp1017
g11
I00
sg18
I01
sg19
I00
sg129
I1
sbsg906
g0
(g484
g103
(lp1018
g0
(g399
g2
Ntp1019
Rp1020
(dp1021
g11
I00
sg18
I01
sg19
I00
sS'slope'
p1022
g0
(g134
g2
Ntp1023
Rp1024
(dp1025
g11
I00
sg18
I01
sg31
F-3.178648
sg19
I00
sbsS'tmax'
p1026
g0
(g134
g2
Ntp1027
Rp1028
(dp1029
g11
I00
sg18
I01
sg31
F16.0
sg19
I00
sbsS'tzero'
p1030
g0
(g134
g2
Ntp1031
Rp1032
(dp1033
g11
I00
sg18
I01
sg31
F23.960177
sg19
I00
sbsg64
(lp1034
g1022
ag1026
ag1030
asbag0
(g399
g2
Ntp1035
Rp1036
(dp1037
g11
I00
sg18
I01
sg19
I00
sg1022
g0
(g134
g2
Ntp1038
Rp1039
(dp1040
g11
I00
sg18
I01
sg31
F-1.556668
sg19
I00
sbsg1026
g0
(g134
g2
Ntp1041
Rp1042
(dp1043
g11
I00
sg18
I01
sg31
F10.0
sg19
I00
sbsg1030
g0
(g134
g2
Ntp1044
Rp1045
(dp1046
g11
I00
sg18
I01
sg31
F13.307784
sg19
I00
sbsg64
(lp1047
g1022
ag1026
ag1030
asbag0
(g399
g2
Ntp1048
Rp1049
(dp1050
g11
I00
sg18
I01
sg19
I00
sg1022
g0
(g134
g2
Ntp1051
Rp1052
(dp1053
g11
I00
sg18
I01
sg31
F-1.075824
sg19
I00
sbsg1026
g0
(g134
g2
Ntp1054
Rp1055
(dp1056
g11
I00
sg18
I01
sg31
F6.25
sg19
I00
sbsg1030
g0
(g134
g2
Ntp1057
Rp1058
(dp1059
g11
I00
sg18
I01
sg31
F9.109694
sg19
I00
sbsg64
(lp1060
g1022
ag1026
ag1030
asbatp1061
Rp1062
(dp1063
g11
I00
sg18
I01
sg19
I00
sg129
I1
sbsg19
I00
sg12
I23
sg90
S'/cvmfs/cms.cern.ch/slc7_amd64_gcc700/cms/cmssw/CMSSW_10_2_3/python/CalibCalorimetry/HcalPlugins/HcalTimeSlew_cff.py'
p1064
sg387
g0
(g227
g2
Ntp1065
Rp1066
(dp1067
g11
I00
sg18
I01
sg31
S'HBHE'
p1068
sg19
I00
sbsg149
g900
sg160
g900
sbsS'CastorGeometryFromDBEP'
p1069
g0
(g187
g2
Ntp1070
Rp1071
(dp1072
g64
(lp1073
g418
asg11
I00
sg19
I00
sg12
I53
sg90
g193
sg149
g1069
sg418
g0
(g27
g2
Ntp1074
Rp1075
(dp1076
g11
I00
sg18
I01
sg31
I00
sg19
I00
sbsg160
g1069
sbsg398
g427
sS'HFRecalParameterBlock'
p1077
g0
(g399
g2
Ntp1078
Rp1079
(dp1080
g11
I00
sg18
I01
sg19
I00
sS'HFdepthTwoParameterA'
p1081
g0
(cFWCore.ParameterSet.Types
vdouble
p1082
g103
(lp1083
F0.002861
aF0.004168
aF0.0064
aF0.008388
aF0.011601
aF0.014425
aF0.018633
aF0.023232
aF0.028274
aF0.035447
aF0.051579
aF0.086593
atp1084
Rp1085
(dp1086
g11
I00
sg18
I01
sg19
I00
sbsS'HFdepthOneParameterA'
p1087
g0
(g1082
g103
(lp1088
F0.004123
aF0.00602
aF0.008201
aF0.010489
aF0.013379
aF0.016997
aF0.021464
aF0.027371
aF0.034195
aF0.044807
aF0.058939
aF0.125497
atp1089
Rp1090
(dp1091
g11
I00
sg18
I01
sg19
I00
sbsS'HFdepthOneParameterB'
p1092
g0
(g1082
g103
(lp1093
F-4e-06
aF-2e-06
aF0.0
aF4e-06
aF1.5e-05
aF2.6e-05
aF6.3e-05
aF8.4e-05
aF0.00016
aF0.000107
aF0.000425
aF0.000209
atp1094
Rp1095
(dp1096
g11
I00
sg18
I01
sg19
I00
sbsS'HFdepthTwoParameterB'
p1097
g0
(g1082
g103
(lp1098
F-2e-06
aF-0.0
aF-7e-06
aF-6e-06
aF-2e-06
aF1e-06
aF1.9e-05
aF3.1e-05
aF6.7e-05
aF1.2e-05
aF0.000157
aF-3e-06
atp1099
Rp1100
(dp1101
g11
I00
sg18
I01
sg19
I00
sbsg64
(lp1102
g1087
ag1092
ag1097
ag1081
asg149
g1077
sbsS'trackerGeometryDB'
p1103
g0
(g187
g2
Ntp1104
Rp1105
(dp1106
g64
(lp1107
g387
aS'fromDDD'
p1108
ag418
aS'alignmentsLabel'
p1109
asg11
I00
sg387
g0
(g227
g2
Ntp1110
Rp1111
(dp1112
g11
I00
sg18
I01
sg31
g25
sg19
I00
sbsg19
I00
sg1109
g0
(g227
g2
Ntp1113
Rp1114
(dp1115
g11
I00
sg18
I01
sg31
g25
sg19
I00
sbsg90
g193
sg12
I53
sg149
g1103
sg1108
g0
(g27
g2
Ntp1116
Rp1117
(dp1118
g11
I00
sg18
I01
sg31
I00
sg19
I00
sbsg418
g0
(g27
g2
Ntp1119
Rp1120
(dp1121
g11
I00
sg18
I01
sg31
I01
sg19
I00
sbsg160
S'TrackerDigiGeometryESModule'
p1122
sbsS'eegeom'
p1123
g0
(g515
g2
Ntp1124
Rp1125
(dp1126
g64
(lp1127
S'iovIsRunNotTime'
p1128
aS'recordName'
p1129
aS'firstValid'
p1130
asg11
I00
sg19
I00
sg12
I6
sg1129
g0
(g227
g2
Ntp1131
Rp1132
(dp1133
g11
I00
sg18
I01
sg31
S'EcalMappingRcd'
p1134
sg19
I00
sbsg90
S'/cvmfs/cms.cern.ch/slc7_amd64_gcc700/cms/cmssw/CMSSW_10_2_3/python/Geometry/EcalMapping/EcalMappingRecord_cfi.py'
p1135
sg1130
g0
(cFWCore.ParameterSet.Types
vuint32
p1136
g103
(lp1137
I1
atp1138
Rp1139
(dp1140
g11
I00
sg18
I01
sg19
I00
sbsg149
g1123
sg1128
g0
(g27
g2
Ntp1141
Rp1142
(dp1143
g11
I00
sg18
I01
sg31
I01
sg19
I00
sbsg160
S'EmptyESSource'
p1144
sbsS'_Process__vpsets'
p1145
(dp1146
sg207
g210
sS'EcalTrigTowerConstituentsMapBuilder'
p1147
g0
(g187
g2
Ntp1148
Rp1149
(dp1150
g64
(lp1151
S'MapFile'
p1152
asg11
I00
sg19
I00
sg1152
g0
(g227
g2
Ntp1153
Rp1154
(dp1155
g11
I00
sg18
I00
sg31
S'Geometry/EcalMapping/data/EndCap_TTMap.txt'
p1156
sg19
I00
sbsg90
g193
sg12
I53
sg149
g1147
sg160
g1147
sbsS'siStripBackPlaneCorrectionDepESProducer'
p1157
g0
(g187
g2
Ntp1158
Rp1159
(dp1160
g64
(lp1161
S'LatencyRecord'
p1162
aS'BackPlaneCorrectionDeconvMode'
p1163
aS'BackPlaneCorrectionPeakMode'
p1164
asg11
I00
sg19
I00
sg12
I53
sg90
g193
sg1162
g0
(g399
g2
Ntp1165
Rp1166
(dp1167
g11
I00
sg18
I01
sg19
I00
sg360
g0
(g227
g2
Ntp1168
Rp1169
(dp1170
g11
I00
sg18
I00
sg31
g25
sg19
I00
sbsg489
g0
(g227
g2
Ntp1171
Rp1172
(dp1173
g11
I00
sg18
I01
sg31
S'SiStripLatencyRcd'
p1174
sg19
I00
sbsg64
(lp1175
g489
ag360
asbsg1164
g0
(g399
g2
Ntp1176
Rp1177
(dp1178
g11
I00
sg18
I01
sg19
I00
sg360
g0
(g227
g2
Ntp1179
Rp1180
(dp1181
g11
I00
sg18
I00
sg31
S'peak'
p1182
sg19
I00
sbsg489
g0
(g227
g2
Ntp1183
Rp1184
(dp1185
g11
I00
sg18
I01
sg31
S'SiStripBackPlaneCorrectionRcd'
p1186
sg19
I00
sbsg64
(lp1187
g489
ag360
asbsg149
g1157
sg1163
g0
(g399
g2
Ntp1188
Rp1189
(dp1190
g11
I00
sg18
I01
sg19
I00
sg360
g0
(g227
g2
Ntp1191
Rp1192
(dp1193
g11
I00
sg18
I00
sg31
S'deconvolution'
p1194
sg19
I00
sbsg489
g0
(g227
g2
Ntp1195
Rp1196
(dp1197
g11
I00
sg18
I01
sg31
g1186
sg19
I00
sbsg64
(lp1198
g489
ag360
asbsg160
S'SiStripBackPlaneCorrectionDepESProducer'
p1199
sbsS'_Process__esprefers'
p1200
(dp1201
S'es_prefer_hcalHardcode'
p1202
g0
(cFWCore.ParameterSet.Modules
ESPrefer
p1203
g2
Ntp1204
Rp1205
(dp1206
g64
(lp1207
sg11
I00
sg19
I00
sS'_targetLabel'
p1208
S'es_hardcode'
p1209
sg12
I89
sg90
g193
sg149
g1202
sg160
S'HcalHardcodeCalibrations'
p1210
sbssS'_Process__isStrict'
p1211
I00
sS'HepPDTESSource'
p1212
g0
(g515
g2
Ntp1213
Rp1214
(dp1215
g64
(lp1216
S'pdtFileName'
p1217
asg11
I00
sg1217
g0
(cFWCore.ParameterSet.Types
FileInPath
p1218
g2
Ntp1219
Rp1220
(dp1221
g11
I00
sg18
I01
sg31
S'SimGeneral/HepPDTESSource/data/pythiaparticle.tbl'
p1222
sg19
I00
sbsg19
I00
sg12
I4
sg90
S'/cvmfs/cms.cern.ch/slc7_amd64_gcc700/cms/cmssw/CMSSW_10_2_3/python/SimGeneral/HepPDTESSource/pythiapdt_cfi.py'
p1223
sg149
g1212
sg160
g1212
sbsS'_Process__outputmodules'
p1224
(dp1225
sS'_Process__analyzers'
p1226
(dp1227
g6
g9
sS'gentree'
p1228
g0
(g7
g2
Ntp1229
Rp1230
(dp1231
g64
(lp1232
g51
aS'genInfo'
p1233
aS'lheInfo'
p1234
ag71
asg11
I00
sg19
I00
sg1233
g0
(g14
g2
Ntp1235
Rp1236
(dp1237
g11
I00
sg18
I01
sg19
I00
sg20
g59
sg22
g25
sg24
g25
sbsg90
g91
sg1234
g0
(g14
g2
Ntp1238
Rp1239
(dp1240
g11
I00
sg18
I01
sg19
I00
sg20
S'externalLHEProducer'
p1241
sg22
g25
sg24
g25
sbsg149
g1228
sg12
I239
sg71
g0
(g14
g2
Ntp1242
Rp1243
(dp1244
g11
I00
sg18
I01
sg19
I00
sg20
S'addPileupInfo'
p1245
sg22
g25
sg24
g25
sbsg51
g0
(g27
g2
Ntp1246
Rp1247
(dp1248
g11
I00
sg18
I01
sg31
I00
sg19
I00
sbsg160
S'LHEWeightsTreeMaker'
p1249
sbssS'idealForDigiTrackerGeometry'
p1250
g0
(g187
g2
Ntp1251
Rp1252
(dp1253
g64
(lp1254
g387
ag1108
ag418
ag1109
asg11
I00
sg387
g0
(g227
g2
Ntp1255
Rp1256
(dp1257
g11
I00
sg18
I01
sg31
S'idealForDigi'
p1258
sg19
I01
sbsg19
I01
sg1109
g0
(g227
g2
Ntp1259
Rp1260
(dp1261
g11
I00
sg18
I01
sg31
S'fakeForIdeal'
p1262
sg19
I01
sbsg90
S'/cvmfs/cms.cern.ch/slc7_amd64_gcc700/cms/cmssw/CMSSW_10_2_3/python/Geometry/TrackerGeometryBuilder/idealForDigiTrackerGeometryDB_cff.py'
p1263
sg12
I8
sg149
g1250
sg1108
g0
(g27
g2
Ntp1264
Rp1265
(dp1266
g11
I00
sg18
I01
sg31
I00
sg19
I00
sbsg418
g0
(g27
g2
Ntp1267
Rp1268
(dp1269
g11
I00
sg18
I01
sg31
I00
sg19
I01
sbsg160
g1122
sbsS'_Process__looper'
p1270
NsS'_Process__tasks'
p1271
(dp1272
sS'_Process__paths'
p1273
g0
(g601
g602
(dp1274
g609
g612
stp1275
Rp1276
(dp1277
g607
(lp1278
g609
asbsg238
g221
sS'MuonNumberingInitialization'
p1279
g0
(g187
g2
Ntp1280
Rp1281
(dp1282
g64
(lp1283
sg11
I00
sg19
I00
sg12
I53
sg90
g193
sg149
g1279
sg160
g1279
sbsS'options'
p1284
g0
(g399
g2
Ntp1285
Rp1286
(dp1287
g11
I00
sg18
I00
sg19
I00
sS'wantSummary'
p1288
g0
(g27
g2
Ntp1289
Rp1290
(dp1291
g11
I00
sg18
I00
sg31
I00
sg19
I00
sbsg64
(lp1292
g1288
aS'allowUnscheduled'
p1293
asg149
g1284
sg1293
g0
(g27
g2
Ntp1294
Rp1295
(dp1296
g11
I00
sg18
I00
sg31
I01
sg19
I00
sbsbsS'DTGeometryESModule'
p1297
g0
(g187
g2
Ntp1298
Rp1299
(dp1300
g64
(lp1301
g387
ag1108
ag418
ag1109
asg11
I00
sg387
g0
(g227
g2
Ntp1302
Rp1303
(dp1304
g11
I00
sg18
I01
sg31
g25
sg19
I00
sbsg19
I00
sg1109
g0
(g227
g2
Ntp1305
Rp1306
(dp1307
g11
I00
sg18
I01
sg31
g25
sg19
I00
sbsg90
g193
sg12
I53
sg149
g1297
sg1108
g0
(g27
g2
Ntp1308
Rp1309
(dp1310
g11
I00
sg18
I01
sg31
I00
sg19
I00
sbsg418
g0
(g27
g2
Ntp1311
Rp1312
(dp1313
g11
I00
sg18
I01
sg31
I01
sg19
I00
sbsg160
g1297
sbsS'VolumeBasedMagneticFieldESProducer'
p1314
g0
(g187
g2
Ntp1315
Rp1316
(dp1317
g64
(lp1318
S'valueOverride'
p1319
aS'debugBuilder'
p1320
ag360
asg11
I00
sg1319
g0
(g272
g2
Ntp1321
Rp1322
(dp1323
g11
I00
sg18
I01
sg31
I-1
sg19
I00
sbsg12
I53
sg90
g193
sg360
g0
(g227
g2
Ntp1324
Rp1325
(dp1326
g11
I00
sg18
I00
sg31
g25
sg19
I00
sbsg1320
g0
(g27
g2
Ntp1327
Rp1328
(dp1329
g11
I00
sg18
I00
sg31
I00
sg19
I00
sbsg149
g1314
sg160
S'VolumeBasedMagneticFieldESProducerFromDB'
p1330
sg19
I00
sbsS'CaloTopologyBuilder'
p1331
g0
(g187
g2
Ntp1332
Rp1333
(dp1334
g64
(lp1335
sg11
I00
sg19
I00
sg12
I53
sg90
g193
sg149
g1331
sg160
g1331
sbsS'SiStripRecHitMatcherESProducer'
p1336
g0
(g187
g2
Ntp1337
Rp1338
(dp1339
g64
(lp1340
S'PreFilter'
p1341
ag595
aS'NSigmaInside'
p1342
asg11
I00
sg19
I00
sg90
g193
sg595
g0
(g227
g2
Ntp1343
Rp1344
(dp1345
g11
I00
sg18
I01
sg31
S'StandardMatcher'
p1346
sg19
I00
sbsg1341
g0
(g27
g2
Ntp1347
Rp1348
(dp1349
g11
I00
sg18
I01
sg31
I00
sg19
I00
sbsg12
I53
sg1342
g0
(g134
g2
Ntp1350
Rp1351
(dp1352
g11
I00
sg18
I01
sg31
F3.0
sg19
I00
sbsg149
g1336
sg160
g1336
sbsS'_Process__psets'
p1353
(dp1354
S'maxEvents'
p1355
g0
(g399
g2
Ntp1356
Rp1357
(dp1358
g11
I00
sg18
I00
sg19
I00
sg64
(lp1359
S'input'
p1360
asg149
g1355
sg1360
g0
(g272
g2
Ntp1361
Rp1362
(dp1363
g11
I00
sg18
I00
sg31
I-1
sg19
I00
sbsbsg1077
g1079
sg1284
g1286
ssS'_Process__essources'
p1364
(dp1365
g1212
g1214
sg1123
g1125
sg1209
g0
(g515
g2
Ntp1366
Rp1367
(dp1368
g11
I00
sg12
I172
sS'useHEUpgrade'
p1369
g0
(g27
g2
Ntp1370
Rp1371
(dp1372
g11
I00
sg18
I01
sg31
I00
sg19
I00
sbsS'HBRecalibration'
p1373
g0
(g27
g2
Ntp1374
Rp1375
(dp1376
g11
I00
sg18
I01
sg31
I00
sg19
I00
sbsS'useLayer0Weight'
p1377
g0
(g27
g2
Ntp1378
Rp1379
(dp1380
g11
I00
sg18
I01
sg31
I00
sg19
I00
sbsS'HEmeanenergies'
p1381
g0
(g1218
g2
Ntp1382
Rp1383
(dp1384
g11
I00
sg18
I01
sg31
S'CalibCalorimetry/HcalPlugins/data/meanenergiesHE.txt'
p1385
sg19
I00
sbsg1077
g1079
sS'heUpgrade'
p1386
g0
(g399
g2
Ntp1387
Rp1388
(dp1389
g11
I00
sg18
I01
sS'qieType'
p1390
g0
(g272
g2
Ntp1391
Rp1392
(dp1393
g11
I00
sg18
I01
sg31
I2
sg19
I00
sbsg19
I00
sS'pedestalWidth'
p1394
g0
(g134
g2
Ntp1395
Rp1396
(dp1397
g11
I00
sg18
I01
sg31
F1.5
sg19
I00
sbsS'recoShape'
p1398
g0
(g272
g2
Ntp1399
Rp1400
(dp1401
g11
I00
sg18
I01
sg31
I206
sg19
I00
sbsS'zsThreshold'
p1402
g0
(g272
g2
Ntp1403
Rp1404
(dp1405
g11
I00
sg18
I01
sg31
I16
sg19
I00
sbsS'darkCurrent'
p1406
g0
(g1082
g103
(lp1407
F0.01
aF0.015
atp1408
Rp1409
(dp1410
g11
I00
sg18
I01
sg19
I00
sbsS'qieOffset'
p1411
g0
(g1082
g103
(lp1412
F0.0
aF0.0
aF0.0
aF0.0
atp1413
Rp1414
(dp1415
g11
I00
sg18
I01
sg19
I00
sbsS'qieSlope'
p1416
g0
(g1082
g103
(lp1417
F0.05376
aF0.05376
aF0.05376
aF0.05376
atp1418
Rp1419
(dp1420
g11
I00
sg18
I01
sg19
I00
sbsS'radiationDamage'
p1421
g0
(g399
g2
Ntp1422
Rp1423
(dp1424
g11
I00
sg18
I01
sS'temperatureNew'
p1425
g0
(g134
g2
Ntp1426
Rp1427
(dp1428
g11
I00
sg18
I01
sg31
I5
sg19
I00
sbsg19
I00
sS'depVsNeutrons'
p1429
g0
(g1082
g103
(lp1430
F5.543e-10
aF8.012e-10
atp1431
Rp1432
(dp1433
g11
I00
sg18
I01
sg19
I00
sbsS'temperatureBase'
p1434
g0
(g134
g2
Ntp1435
Rp1436
(dp1437
g11
I00
sg18
I01
sg31
I20
sg19
I00
sbsS'depVsTemp'
p1438
g0
(g134
g2
Ntp1439
Rp1440
(dp1441
g11
I00
sg18
I01
sg31
F0.0631
sg19
I00
sbsS'intlumiOffset'
p1442
g0
(g134
g2
Ntp1443
Rp1444
(dp1445
g11
I00
sg18
I01
sg31
I75
sg19
I00
sbsg64
(lp1446
g1425
ag1429
ag1434
ag1438
ag1442
aS'intlumiToNeutrons'
p1447
asg1447
g0
(g134
g2
Ntp1448
Rp1449
(dp1450
g11
I00
sg18
I01
sg31
F29200000.0
sg19
I00
sbsbsS'doRadiationDamage'
p1451
g0
(g27
g2
Ntp1452
Rp1453
(dp1454
g11
I00
sg18
I01
sg31
I01
sg19
I00
sbsg64
(lp1455
g1390
ag1394
ag1398
ag1402
aS'photoelectronsToAnalog'
p1456
ag1411
ag1416
ag1421
ag1451
ag1406
aS'pedestal'
p1457
aS'mcShape'
p1458
aS'gainWidth'
p1459
aS'gain'
p1460
asg1456
g0
(g134
g2
Ntp1461
Rp1462
(dp1463
g11
I00
sg18
I01
sg31
F40.0
sg19
I00
sbsg1457
g0
(g134
g2
Ntp1464
Rp1465
(dp1466
g11
I00
sg18
I01
sg31
F17.3
sg19
I00
sbsg1458
g0
(g272
g2
Ntp1467
Rp1468
(dp1469
g11
I00
sg18
I01
sg31
I206
sg19
I00
sbsg1459
g0
(g1082
g103
(lp1470
I0
atp1471
Rp1472
(dp1473
g11
I00
sg18
I01
sg19
I00
sbsg1460
g0
(g1082
g103
(lp1474
F0.0006252
atp1475
Rp1476
(dp1477
g11
I00
sg18
I01
sg19
I00
sbsbsg64
(lp1478
g526
ag1373
ag1377
ag1381
ag1077
ag1386
aS'useIeta18depth1'
p1479
aS'killHE'
p1480
aS'useHBUpgrade'
p1481
aS'hbUpgrade'
p1482
aS'testHEPlan1'
p1483
aS'iLumi'
p1484
aS'testHFQIE10'
p1485
aS'HBmeanenergies'
p1486
ag1369
aS'GainWidthsForTrigPrims'
p1487
aS'HBreCalibCutoff'
p1488
aS'HFRecalibration'
p1489
aS'ho'
p1490
aS'hb'
p1491
aS'hf'
p1492
aS'he'
p1493
aS'HERecalibration'
p1494
aS'useHFUpgrade'
p1495
aS'HEreCalibCutoff'
p1496
aS'SiPMCharacteristics'
p1497
aS'useHOUpgrade'
p1498
aS'hfUpgrade'
p1499
asg90
S'/cvmfs/cms.cern.ch/slc7_amd64_gcc700/cms/cmssw/CMSSW_10_2_3/python/CalibCalorimetry/HcalPlugins/Hcal_Conditions_forGlobalTag_cff.py'
p1500
sg1479
g0
(g27
g2
Ntp1501
Rp1502
(dp1503
g11
I00
sg18
I01
sg31
I01
sg19
I00
sbsg1480
g0
(g27
g2
Ntp1504
Rp1505
(dp1506
g11
I00
sg18
I01
sg31
I00
sg19
I00
sbsg1481
g0
(g27
g2
Ntp1507
Rp1508
(dp1509
g11
I00
sg18
I01
sg31
I00
sg19
I00
sbsg1482
g0
(g399
g2
Ntp1510
Rp1511
(dp1512
g11
I00
sg18
I01
sg1390
g0
(g272
g2
Ntp1513
Rp1514
(dp1515
g11
I00
sg18
I01
sg31
I2
sg19
I00
sbsg19
I00
sg1394
g0
(g134
g2
Ntp1516
Rp1517
(dp1518
g11
I00
sg18
I01
sg31
F1.5
sg19
I00
sbsg1398
g0
(g272
g2
Ntp1519
Rp1520
(dp1521
g11
I00
sg18
I01
sg31
I206
sg19
I00
sbsg1402
g0
(g272
g2
Ntp1522
Rp1523
(dp1524
g11
I00
sg18
I01
sg31
I16
sg19
I00
sbsg1406
g0
(g1082
g103
(lp1525
F0.01
aF0.015
atp1526
Rp1527
(dp1528
g11
I00
sg18
I01
sg19
I00
sbsg1411
g0
(g1082
g103
(lp1529
F0.0
aF0.0
aF0.0
aF0.0
atp1530
Rp1531
(dp1532
g11
I00
sg18
I01
sg19
I00
sbsg1416
g0
(g1082
g103
(lp1533
F0.05376
aF0.05376
aF0.05376
aF0.05376
atp1534
Rp1535
(dp1536
g11
I00
sg18
I01
sg19
I00
sbsg1421
g0
(g399
g2
Ntp1537
Rp1538
(dp1539
g11
I00
sg18
I01
sg1425
g0
(g134
g2
Ntp1540
Rp1541
(dp1542
g11
I00
sg18
I01
sg31
I-5
sg19
I00
sbsg19
I00
sg1429
g0
(g1082
g103
(lp1543
F5.543e-10
aF8.012e-10
atp1544
Rp1545
(dp1546
g11
I00
sg18
I01
sg19
I00
sbsg1434
g0
(g134
g2
Ntp1547
Rp1548
(dp1549
g11
I00
sg18
I01
sg31
I20
sg19
I00
sbsg1438
g0
(g134
g2
Ntp1550
Rp1551
(dp1552
g11
I00
sg18
I01
sg31
F0.0631
sg19
I00
sbsg1442
g0
(g134
g2
Ntp1553
Rp1554
(dp1555
g11
I00
sg18
I01
sg31
I150
sg19
I00
sbsg64
(lp1556
g1425
ag1429
ag1434
ag1438
ag1442
ag1447
asg1447
g0
(g134
g2
Ntp1557
Rp1558
(dp1559
g11
I00
sg18
I01
sg31
F367000000.0
sg19
I00
sbsbsg1451
g0
(g27
g2
Ntp1560
Rp1561
(dp1562
g11
I00
sg18
I01
sg31
I01
sg19
I00
sbsg64
(lp1563
g1390
ag1394
ag1398
ag1402
ag1456
ag1411
ag1416
ag1421
ag1451
ag1406
ag1457
ag1458
ag1459
ag1460
asg1456
g0
(g134
g2
Ntp1564
Rp1565
(dp1566
g11
I00
sg18
I01
sg31
F40.0
sg19
I00
sbsg1457
g0
(g134
g2
Ntp1567
Rp1568
(dp1569
g11
I00
sg18
I01
sg31
F17.3
sg19
I00
sbsg1458
g0
(g272
g2
Ntp1570
Rp1571
(dp1572
g11
I00
sg18
I01
sg31
I206
sg19
I00
sbsg1459
g0
(g1082
g103
(lp1573
I0
atp1574
Rp1575
(dp1576
g11
I00
sg18
I01
sg19
I00
sbsg1460
g0
(g1082
g103
(lp1577
F0.0006252
atp1578
Rp1579
(dp1580
g11
I00
sg18
I01
sg19
I00
sbsbsg160
g1210
sg1483
g0
(g27
g2
Ntp1581
Rp1582
(dp1583
g11
I00
sg18
I01
sg31
I00
sg19
I00
sbsg1484
g0
(g134
g2
Ntp1584
Rp1585
(dp1586
g11
I00
sg18
I01
sg31
F-1.0
sg19
I00
sbsg1485
g0
(g27
g2
Ntp1587
Rp1588
(dp1589
g11
I00
sg18
I01
sg31
I00
sg19
I00
sbsg1486
g0
(g1218
g2
Ntp1590
Rp1591
(dp1592
g11
I00
sg18
I01
sg31
S'CalibCalorimetry/HcalPlugins/data/meanenergiesHB.txt'
p1593
sg19
I00
sbsg526
g0
(g102
g103
(lp1594
S'GainWidths'
p1595
atp1596
Rp1597
(dp1598
g11
I00
sg18
I00
sg19
I00
sg129
I1
sbsg1487
g0
(g27
g2
Ntp1599
Rp1600
(dp1601
g11
I00
sg18
I01
sg31
I00
sg19
I00
sbsg1488
g0
(g134
g2
Ntp1602
Rp1603
(dp1604
g11
I00
sg18
I01
sg31
F20.0
sg19
I00
sbsg1489
g0
(g27
g2
Ntp1605
Rp1606
(dp1607
g11
I00
sg18
I01
sg31
I00
sg19
I00
sbsg1490
g0
(g399
g2
Ntp1608
Rp1609
(dp1610
g11
I00
sg18
I01
sg1390
g0
(g272
g2
Ntp1611
Rp1612
(dp1613
g11
I00
sg18
I01
sg31
I0
sg19
I00
sbsg19
I00
sg1394
g0
(g134
g2
Ntp1614
Rp1615
(dp1616
g11
I00
sg18
I01
sg31
F0.6285
sg19
I00
sbsg1398
g0
(g272
g2
Ntp1617
Rp1618
(dp1619
g11
I00
sg18
I01
sg31
I201
sg19
I00
sbsg1402
g0
(g272
g2
Ntp1620
Rp1621
(dp1622
g11
I00
sg18
I01
sg31
I24
sg19
I00
sbsg1406
g0
(g1082
g103
(lp1623
F0.0
atp1624
Rp1625
(dp1626
g11
I00
sg18
I01
sg19
I00
sbsg1411
g0
(g1082
g103
(lp1627
F-0.44
aF1.4
aF7.1
aF38.5
atp1628
Rp1629
(dp1630
g11
I00
sg18
I01
sg19
I00
sbsg1416
g0
(g1082
g103
(lp1631
F0.907
aF0.915
aF0.92
aF0.921
atp1632
Rp1633
(dp1634
g11
I00
sg18
I01
sg19
I00
sbsg1460
g0
(g1082
g103
(lp1635
F0.006
aF0.0087
atp1636
Rp1637
(dp1638
g11
I00
sg18
I01
sg19
I00
sbsg1451
g0
(g27
g2
Ntp1639
Rp1640
(dp1641
g11
I00
sg18
I01
sg31
I00
sg19
I00
sbsg64
(lp1642
g1390
ag1394
ag1398
ag1402
ag1456
ag1411
ag1416
ag1460
ag1451
ag1406
ag1457
ag1458
ag1459
asg1456
g0
(g134
g2
Ntp1643
Rp1644
(dp1645
g11
I00
sg18
I01
sg31
F4.0
sg19
I00
sbsg1457
g0
(g134
g2
Ntp1646
Rp1647
(dp1648
g11
I00
sg18
I01
sg31
F12.06
sg19
I00
sbsg1458
g0
(g272
g2
Ntp1649
Rp1650
(dp1651
g11
I00
sg18
I01
sg31
I201
sg19
I00
sbsg1459
g0
(g1082
g103
(lp1652
F0.0
aF0.0
atp1653
Rp1654
(dp1655
g11
I00
sg18
I01
sg19
I00
sbsbsg1491
g0
(g399
g2
Ntp1656
Rp1657
(dp1658
g11
I00
sg18
I01
sg1390
g0
(g272
g2
Ntp1659
Rp1660
(dp1661
g11
I00
sg18
I01
sg31
I0
sg19
I00
sbsg19
I00
sg1394
g0
(g134
g2
Ntp1662
Rp1663
(dp1664
g11
I00
sg18
I01
sg31
F0.809
sg19
I00
sbsg1398
g0
(g272
g2
Ntp1665
Rp1666
(dp1667
g11
I00
sg18
I01
sg31
I105
sg19
I00
sbsg1402
g0
(g272
g2
Ntp1668
Rp1669
(dp1670
g11
I00
sg18
I01
sg31
I8
sg19
I00
sbsg1406
g0
(g1082
g103
(lp1671
F0.0
atp1672
Rp1673
(dp1674
g11
I00
sg18
I01
sg19
I00
sbsg1411
g0
(g1082
g103
(lp1675
F-0.49
aF1.8
aF7.2
aF37.9
atp1676
Rp1677
(dp1678
g11
I00
sg18
I01
sg19
I00
sbsg1416
g0
(g1082
g103
(lp1679
F0.912
aF0.917
aF0.922
aF0.923
atp1680
Rp1681
(dp1682
g11
I00
sg18
I01
sg19
I00
sbsg1460
g0
(g1082
g103
(lp1683
F0.19
atp1684
Rp1685
(dp1686
g11
I00
sg18
I01
sg19
I00
sbsg1451
g0
(g27
g2
Ntp1687
Rp1688
(dp1689
g11
I00
sg18
I01
sg31
I00
sg19
I00
sbsg64
(lp1690
g1390
ag1394
ag1398
ag1402
ag1456
ag1411
ag1416
ag1460
ag1451
ag1406
ag1457
ag1458
ag1459
asg1456
g0
(g134
g2
Ntp1691
Rp1692
(dp1693
g11
I00
sg18
I01
sg31
F0.3305
sg19
I00
sbsg1457
g0
(g134
g2
Ntp1694
Rp1695
(dp1696
g11
I00
sg18
I01
sg31
F3.285
sg19
I00
sbsg1458
g0
(g272
g2
Ntp1697
Rp1698
(dp1699
g11
I00
sg18
I01
sg31
I125
sg19
I00
sbsg1459
g0
(g1082
g103
(lp1700
F0.0
atp1701
Rp1702
(dp1703
g11
I00
sg18
I01
sg19
I00
sbsbsg1492
g0
(g399
g2
Ntp1704
Rp1705
(dp1706
g11
I00
sg18
I01
sg1390
g0
(g272
g2
Ntp1707
Rp1708
(dp1709
g11
I00
sg18
I01
sg31
I0
sg19
I00
sbsg19
I00
sg1394
g0
(g134
g2
Ntp1710
Rp1711
(dp1712
g11
I00
sg18
I01
sg31
F2.516
sg19
I00
sbsg1398
g0
(g272
g2
Ntp1713
Rp1714
(dp1715
g11
I00
sg18
I01
sg31
I301
sg19
I00
sbsg1402
g0
(g272
g2
Ntp1716
Rp1717
(dp1718
g11
I00
sg18
I01
sg31
I-9999
sg19
I00
sbsg1406
g0
(g1082
g103
(lp1719
F0.0
atp1720
Rp1721
(dp1722
g11
I00
sg18
I01
sg19
I00
sbsg1411
g0
(g1082
g103
(lp1723
F-0.87
aF1.4
aF7.8
aF-29.6
atp1724
Rp1725
(dp1726
g11
I00
sg18
I01
sg19
I00
sbsg1416
g0
(g1082
g103
(lp1727
F0.359
aF0.358
aF0.36
aF0.367
atp1728
Rp1729
(dp1730
g11
I00
sg18
I01
sg19
I00
sbsg1460
g0
(g1082
g103
(lp1731
F0.14
aF0.135
atp1732
Rp1733
(dp1734
g11
I00
sg18
I01
sg19
I00
sbsg1451
g0
(g27
g2
Ntp1735
Rp1736
(dp1737
g11
I00
sg18
I01
sg31
I00
sg19
I00
sbsg64
(lp1738
g1390
ag1394
ag1398
ag1402
ag1456
ag1411
ag1416
ag1460
ag1451
ag1406
ag1457
ag1458
ag1459
asg1456
g0
(g134
g2
Ntp1739
Rp1740
(dp1741
g11
I00
sg18
I01
sg31
F0.0
sg19
I00
sbsg1457
g0
(g134
g2
Ntp1742
Rp1743
(dp1744
g11
I00
sg18
I01
sg31
F9.354
sg19
I00
sbsg1458
g0
(g272
g2
Ntp1745
Rp1746
(dp1747
g11
I00
sg18
I01
sg31
I301
sg19
I00
sbsg1459
g0
(g1082
g103
(lp1748
F0.0
aF0.0
atp1749
Rp1750
(dp1751
g11
I00
sg18
I01
sg19
I00
sbsbsg1493
g0
(g399
g2
Ntp1752
Rp1753
(dp1754
g11
I00
sg18
I01
sg1390
g0
(g272
g2
Ntp1755
Rp1756
(dp1757
g11
I00
sg18
I01
sg31
I0
sg19
I00
sbsg19
I00
sg1394
g0
(g134
g2
Ntp1758
Rp1759
(dp1760
g11
I00
sg18
I01
sg31
F0.9698
sg19
I00
sbsg1398
g0
(g272
g2
Ntp1761
Rp1762
(dp1763
g11
I00
sg18
I01
sg31
I105
sg19
I00
sbsg1402
g0
(g272
g2
Ntp1764
Rp1765
(dp1766
g11
I00
sg18
I01
sg31
I9
sg19
I00
sbsg1406
g0
(g1082
g103
(lp1767
F0.0
atp1768
Rp1769
(dp1770
g11
I00
sg18
I01
sg19
I00
sbsg1411
g0
(g1082
g103
(lp1771
F-0.38
aF2.0
aF7.6
aF39.6
atp1772
Rp1773
(dp1774
g11
I00
sg18
I01
sg19
I00
sbsg1416
g0
(g1082
g103
(lp1775
F0.912
aF0.916
aF0.92
aF0.922
atp1776
Rp1777
(dp1778
g11
I00
sg18
I01
sg19
I00
sbsg1460
g0
(g1082
g103
(lp1779
F0.23
atp1780
Rp1781
(dp1782
g11
I00
sg18
I01
sg19
I00
sbsg1451
g0
(g27
g2
Ntp1783
Rp1784
(dp1785
g11
I00
sg18
I01
sg31
I00
sg19
I00
sbsg64
(lp1786
g1390
ag1394
ag1398
ag1402
ag1456
ag1411
ag1416
ag1460
ag1451
ag1406
ag1457
ag1458
ag1459
asg1456
g0
(g134
g2
Ntp1787
Rp1788
(dp1789
g11
I00
sg18
I01
sg31
F0.3305
sg19
I00
sbsg1457
g0
(g134
g2
Ntp1790
Rp1791
(dp1792
g11
I00
sg18
I01
sg31
F3.163
sg19
I00
sbsg1458
g0
(g272
g2
Ntp1793
Rp1794
(dp1795
g11
I00
sg18
I01
sg31
I125
sg19
I00
sbsg1459
g0
(g1082
g103
(lp1796
I0
atp1797
Rp1798
(dp1799
g11
I00
sg18
I01
sg19
I00
sbsbsg19
I00
sg1494
g0
(g27
g2
Ntp1800
Rp1801
(dp1802
g11
I00
sg18
I01
sg31
I00
sg19
I00
sbsg1495
g0
(g27
g2
Ntp1803
Rp1804
(dp1805
g11
I00
sg18
I01
sg31
I00
sg19
I00
sbsg1496
g0
(g134
g2
Ntp1806
Rp1807
(dp1808
g11
I00
sg18
I01
sg31
F20.0
sg19
I00
sbsg1497
g0
(g484
g103
(lp1809
g0
(g399
g2
Ntp1810
Rp1811
(dp1812
g11
I00
sg18
I01
sg19
I00
sS'crosstalk'
p1813
g0
(g134
g2
Ntp1814
Rp1815
(dp1816
g11
I00
sg18
I01
sg31
F0.0
sg19
I00
sbsS'nonlin1'
p1817
g0
(g134
g2
Ntp1818
Rp1819
(dp1820
g11
I00
sg18
I01
sg31
F1.0
sg19
I00
sbsS'nonlin3'
p1821
g0
(g134
g2
Ntp1822
Rp1823
(dp1824
g11
I00
sg18
I01
sg31
F0.0
sg19
I00
sbsS'nonlin2'
p1825
g0
(g134
g2
Ntp1826
Rp1827
(dp1828
g11
I00
sg18
I01
sg31
F0.0
sg19
I00
sbsg64
(lp1829
g1817
ag1821
ag1825
aS'pixels'
p1830
ag1813
asg1830
g0
(g272
g2
Ntp1831
Rp1832
(dp1833
g11
I00
sg18
I01
sg31
I36000
sg19
I00
sbsbag0
(g399
g2
Ntp1834
Rp1835
(dp1836
g11
I00
sg18
I01
sg19
I00
sg1813
g0
(g134
g2
Ntp1837
Rp1838
(dp1839
g11
I00
sg18
I01
sg31
F0.0
sg19
I00
sbsg1817
g0
(g134
g2
Ntp1840
Rp1841
(dp1842
g11
I00
sg18
I01
sg31
F1.0
sg19
I00
sbsg1821
g0
(g134
g2
Ntp1843
Rp1844
(dp1845
g11
I00
sg18
I01
sg31
F0.0
sg19
I00
sbsg1825
g0
(g134
g2
Ntp1846
Rp1847
(dp1848
g11
I00
sg18
I01
sg31
F0.0
sg19
I00
sbsg64
(lp1849
g1817
ag1821
ag1825
ag1830
ag1813
asg1830
g0
(g272
g2
Ntp1850
Rp1851
(dp1852
g11
I00
sg18
I01
sg31
I2500
sg19
I00
sbsbag0
(g399
g2
Ntp1853
Rp1854
(dp1855
g11
I00
sg18
I01
sg19
I00
sg1813
g0
(g134
g2
Ntp1856
Rp1857
(dp1858
g11
I00
sg18
I01
sg31
F0.17
sg19
I00
sbsg1817
g0
(g134
g2
Ntp1859
Rp1860
(dp1861
g11
I00
sg18
I01
sg31
F1.00985
sg19
I00
sbsg1821
g0
(g134
g2
Ntp1862
Rp1863
(dp1864
g11
I00
sg18
I01
sg31
F2.86282e-10
sg19
I00
sbsg1825
g0
(g134
g2
Ntp1865
Rp1866
(dp1867
g11
I00
sg18
I01
sg31
F7.84089e-06
sg19
I00
sbsg64
(lp1868
g1817
ag1821
ag1825
ag1830
ag1813
asg1830
g0
(g272
g2
Ntp1869
Rp1870
(dp1871
g11
I00
sg18
I01
sg31
I27370
sg19
I00
sbsbag0
(g399
g2
Ntp1872
Rp1873
(dp1874
g11
I00
sg18
I01
sg19
I00
sg1813
g0
(g134
g2
Ntp1875
Rp1876
(dp1877
g11
I00
sg18
I01
sg31
F0.196
sg19
I00
sbsg1817
g0
(g134
g2
Ntp1878
Rp1879
(dp1880
g11
I00
sg18
I01
sg31
F1.00546
sg19
I00
sbsg1821
g0
(g134
g2
Ntp1881
Rp1882
(dp1883
g11
I00
sg18
I01
sg31
F1.27011e-10
sg19
I00
sbsg1825
g0
(g134
g2
Ntp1884
Rp1885
(dp1886
g11
I00
sg18
I01
sg31
F6.40239e-06
sg19
I00
sbsg64
(lp1887
g1817
ag1821
ag1825
ag1830
ag1813
asg1830
g0
(g272
g2
Ntp1888
Rp1889
(dp1890
g11
I00
sg18
I01
sg31
I38018
sg19
I00
sbsbag0
(g399
g2
Ntp1891
Rp1892
(dp1893
g11
I00
sg18
I01
sg19
I00
sg1813
g0
(g134
g2
Ntp1894
Rp1895
(dp1896
g11
I00
sg18
I01
sg31
F0.17
sg19
I00
sbsg1817
g0
(g134
g2
Ntp1897
Rp1898
(dp1899
g11
I00
sg18
I01
sg31
F1.00985
sg19
I00
sbsg1821
g0
(g134
g2
Ntp1900
Rp1901
(dp1902
g11
I00
sg18
I01
sg31
F2.86282e-10
sg19
I00
sbsg1825
g0
(g134
g2
Ntp1903
Rp1904
(dp1905
g11
I00
sg18
I01
sg31
F7.84089e-06
sg19
I00
sbsg64
(lp1906
g1817
ag1821
ag1825
ag1830
ag1813
asg1830
g0
(g272
g2
Ntp1907
Rp1908
(dp1909
g11
I00
sg18
I01
sg31
I27370
sg19
I00
sbsbag0
(g399
g2
Ntp1910
Rp1911
(dp1912
g11
I00
sg18
I01
sg19
I00
sg1813
g0
(g134
g2
Ntp1913
Rp1914
(dp1915
g11
I00
sg18
I01
sg31
F0.196
sg19
I00
sbsg1817
g0
(g134
g2
Ntp1916
Rp1917
(dp1918
g11
I00
sg18
I01
sg31
F1.00546
sg19
I00
sbsg1821
g0
(g134
g2
Ntp1919
Rp1920
(dp1921
g11
I00
sg18
I01
sg31
F1.27011e-10
sg19
I00
sbsg1825
g0
(g134
g2
Ntp1922
Rp1923
(dp1924
g11
I00
sg18
I01
sg31
F6.40239e-06
sg19
I00
sbsg64
(lp1925
g1817
ag1821
ag1825
ag1830
ag1813
asg1830
g0
(g272
g2
Ntp1926
Rp1927
(dp1928
g11
I00
sg18
I01
sg31
I38018
sg19
I00
sbsbag0
(g399
g2
Ntp1929
Rp1930
(dp1931
g11
I00
sg18
I01
sg19
I00
sg1813
g0
(g134
g2
Ntp1932
Rp1933
(dp1934
g11
I00
sg18
I01
sg31
F0.0
sg19
I00
sbsg1817
g0
(g134
g2
Ntp1935
Rp1936
(dp1937
g11
I00
sg18
I01
sg31
F1.0
sg19
I00
sbsg1821
g0
(g134
g2
Ntp1938
Rp1939
(dp1940
g11
I00
sg18
I01
sg31
F0.0
sg19
I00
sbsg1825
g0
(g134
g2
Ntp1941
Rp1942
(dp1943
g11
I00
sg18
I01
sg31
F0.0
sg19
I00
sbsg64
(lp1944
g1817
ag1821
ag1825
ag1830
ag1813
asg1830
g0
(g272
g2
Ntp1945
Rp1946
(dp1947
g11
I00
sg18
I01
sg31
I0
sg19
I00
sbsbatp1948
Rp1949
(dp1950
g11
I00
sg18
I01
sg19
I00
sg129
I1
sbsg149
g1209
sg1498
g0
(g27
g2
Ntp1951
Rp1952
(dp1953
g11
I00
sg18
I01
sg31
I01
sg19
I00
sbsg1499
g0
(g399
g2
Ntp1954
Rp1955
(dp1956
g11
I00
sg18
I01
sg1390
g0
(g272
g2
Ntp1957
Rp1958
(dp1959
g11
I00
sg18
I01
sg31
I1
sg19
I00
sbsg19
I00
sg1394
g0
(g134
g2
Ntp1960
Rp1961
(dp1962
g11
I00
sg18
I01
sg31
F3.33
sg19
I00
sbsg1398
g0
(g272
g2
Ntp1963
Rp1964
(dp1965
g11
I00
sg18
I01
sg31
I301
sg19
I00
sbsg1402
g0
(g272
g2
Ntp1966
Rp1967
(dp1968
g11
I00
sg18
I01
sg31
I-9999
sg19
I00
sbsg1406
g0
(g1082
g103
(lp1969
F0.0
atp1970
Rp1971
(dp1972
g11
I00
sg18
I01
sg19
I00
sbsg1411
g0
(g1082
g103
(lp1973
F0.0697
aF-0.7405
aF12.38
aF-671.9
atp1974
Rp1975
(dp1976
g11
I00
sg18
I01
sg19
I00
sbsg1416
g0
(g1082
g103
(lp1977
F0.297
aF0.298
aF0.298
aF0.313
atp1978
Rp1979
(dp1980
g11
I00
sg18
I01
sg19
I00
sbsg1460
g0
(g1082
g103
(lp1981
F0.14
aF0.135
atp1982
Rp1983
(dp1984
g11
I00
sg18
I01
sg19
I00
sbsg1451
g0
(g27
g2
Ntp1985
Rp1986
(dp1987
g11
I00
sg18
I01
sg31
I00
sg19
I00
sbsg64
(lp1988
g1390
ag1394
ag1398
ag1402
ag1456
ag1411
ag1416
ag1460
ag1451
ag1406
ag1457
ag1458
ag1459
asg1456
g0
(g134
g2
Ntp1989
Rp1990
(dp1991
g11
I00
sg18
I01
sg31
F0.0
sg19
I00
sbsg1457
g0
(g134
g2
Ntp1992
Rp1993
(dp1994
g11
I00
sg18
I01
sg31
F13.33
sg19
I00
sbsg1458
g0
(g272
g2
Ntp1995
Rp1996
(dp1997
g11
I00
sg18
I01
sg31
I301
sg19
I00
sbsg1459
g0
(g1082
g103
(lp1998
F0.0
aF0.0
atp1999
Rp2000
(dp2001
g11
I00
sg18
I01
sg19
I00
sbsbsbsg514
g517
sg900
g902
ssg353
g340
sg471
g473
sg1355
g1357
sS'CSCGeometryESModule'
p2002
g0
(g187
g2
Ntp2003
Rp2004
(dp2005
g64
(lp2006
g387
aS'useDDD'
p2007
aS'debugV'
p2008
aS'useGangedStripsInME1a'
p2009
ag1109
aS'useOnlyWiresInME1a'
p2010
aS'useRealWireGeometry'
p2011
aS'useCentreTIOffsets'
p2012
ag418
asg11
I00
sg387
g0
(g227
g2
Ntp2013
Rp2014
(dp2015
g11
I00
sg18
I01
sg31
g25
sg19
I00
sbsg19
I00
sg2008
g0
(g27
g2
Ntp2016
Rp2017
(dp2018
g11
I00
sg18
I00
sg31
I00
sg19
I00
sbsg90
g193
sg2009
g0
(g27
g2
Ntp2019
Rp2020
(dp2021
g11
I00
sg18
I01
sg31
I01
sg19
I00
sbsg1109
g0
(g227
g2
Ntp2022
Rp2023
(dp2024
g11
I00
sg18
I01
sg31
g25
sg19
I00
sbsg2010
g0
(g27
g2
Ntp2025
Rp2026
(dp2027
g11
I00
sg18
I01
sg31
I00
sg19
I00
sbsg2007
g0
(g27
g2
Ntp2028
Rp2029
(dp2030
g11
I00
sg18
I01
sg31
I00
sg19
I00
sbsg12
I53
sg2012
g0
(g27
g2
Ntp2031
Rp2032
(dp2033
g11
I00
sg18
I01
sg31
I00
sg19
I00
sbsg149
g2002
sg2011
g0
(g27
g2
Ntp2034
Rp2035
(dp2036
g11
I00
sg18
I01
sg31
I01
sg19
I00
sbsg418
g0
(g27
g2
Ntp2037
Rp2038
(dp2039
g11
I00
sg18
I01
sg31
I01
sg19
I00
sbsg160
g2002
sbsS'EcalBarrelGeometryFromDBEP'
p2040
g0
(g187
g2
Ntp2041
Rp2042
(dp2043
g64
(lp2044
g418
asg11
I00
sg19
I01
sg12
I53
sg90
g193
sg149
g2040
sg418
g0
(g27
g2
Ntp2045
Rp2046
(dp2047
g11
I00
sg18
I01
sg31
I01
sg19
I01
sbsg160
g2040
sbsS'trackerNumberingGeometryDB'
p2048
g0
(g187
g2
Ntp2049
Rp2050
(dp2051
g64
(lp2052
g387
ag1108
asg11
I00
sg387
g0
(g227
g2
Ntp2053
Rp2054
(dp2055
g11
I00
sg18
I01
sg31
g25
sg19
I00
sbsg19
I00
sg12
I53
sg90
g193
sg149
g2048
sg1108
g0
(g27
g2
Ntp2056
Rp2057
(dp2058
g11
I00
sg18
I01
sg31
I00
sg19
I00
sbsg160
S'TrackerGeometricDetESModule'
p2059
sbsS'_Process__name'
p2060
S'LL'
p2061
sg1209
g1367
sg179
g241
sS'_cloneToObjectDict'
p2062
(dp2063
I139625411101584
g0
(g187
g2
Ntp2064
Rp2065
(dp2066
g64
(lp2067
S'printDebug'
p2068
ag387
aS'APVGain'
p2069
aS'AutomaticNormalization'
p2070
asg11
I00
sg387
g0
(g227
g2
Ntp2071
Rp2072
(dp2073
g11
I00
sg18
I01
sg31
g25
sg19
I00
sbsg19
I00
sg2070
g0
(g27
g2
Ntp2074
Rp2075
(dp2076
g11
I00
sg18
I01
sg31
I00
sg19
I00
sbsg12
I53
sg2068
g0
(g27
g2
Ntp2077
Rp2078
(dp2079
g11
I00
sg18
I00
sg31
I00
sg19
I00
sbsg90
g193
sg2069
g0
(g484
g103
(lp2080
g0
(g399
g2
Ntp2081
Rp2082
(dp2083
g11
I00
sg18
I01
sg19
I00
sS'Label'
p2084
g0
(g227
g2
Ntp2085
Rp2086
(dp2087
g11
I00
sg18
I00
sg31
g25
sg19
I00
sbsS'Record'
p2088
g0
(g227
g2
Ntp2089
Rp2090
(dp2091
g11
I00
sg18
I01
sg31
S'SiStripApvGainRcd'
p2092
sg19
I00
sbsS'NormalizationFactor'
p2093
g0
(g134
g2
Ntp2094
Rp2095
(dp2096
g11
I00
sg18
I00
sg31
F1.0
sg19
I00
sbsg64
(lp2097
g2088
ag2093
ag2084
asbag0
(g399
g2
Ntp2098
Rp2099
(dp2100
g11
I00
sg18
I01
sg19
I00
sg2084
g0
(g227
g2
Ntp2101
Rp2102
(dp2103
g11
I00
sg18
I00
sg31
g25
sg19
I00
sbsg2088
g0
(g227
g2
Ntp2104
Rp2105
(dp2106
g11
I00
sg18
I01
sg31
S'SiStripApvGain2Rcd'
p2107
sg19
I00
sbsg2093
g0
(g134
g2
Ntp2108
Rp2109
(dp2110
g11
I00
sg18
I00
sg31
F1.0
sg19
I00
sbsg64
(lp2111
g2088
ag2093
ag2084
asbatp2112
Rp2113
(dp2114
g11
I00
sg18
I01
sg19
I00
sg129
I1
sbsg149
S'siStripGainESProducer'
p2115
sg160
S'SiStripGainESProducer'
p2116
sbsI139625411146768
g480
sI139625411064912
g1367
sI139625411251472
g1286
sI139625410651344
g1299
sI139625411103632
g0
(g187
g2
Ntp2117
Rp2118
(dp2119
g64
(lp2120
S'ComponentType'
p2121
ag595
aS'parameters'
p2122
asg11
I00
sg19
I01
sg2122
g0
(g399
g2
Ntp2123
Rp2124
(dp2125
g11
I00
sg18
I01
sS'maxChgOneMIP'
p2126
g0
(g134
g2
Ntp2127
Rp2128
(dp2129
g11
I00
sg18
I01
sg31
F6000.0
sg19
I00
sbsS'mLC_P2'
p2130
g0
(g134
g2
Ntp2131
Rp2132
(dp2133
g11
I00
sg18
I01
sg31
F0.3
sg19
I00
sbsS'mLC_P1'
p2134
g0
(g134
g2
Ntp2135
Rp2136
(dp2137
g11
I00
sg18
I01
sg31
F0.618
sg19
I00
sbsS'mLC_P0'
p2138
g0
(g134
g2
Ntp2139
Rp2140
(dp2141
g11
I00
sg18
I01
sg31
F-0.326
sg19
I00
sbsS'useLegacyError'
p2142
g0
(g27
g2
Ntp2143
Rp2144
(dp2145
g11
I00
sg18
I01
sg31
I00
sg19
I00
sbsS'mTIB_P1'
p2146
g0
(g134
g2
Ntp2147
Rp2148
(dp2149
g11
I00
sg18
I01
sg31
F0.202
sg19
I00
sbsS'mTEC_P1'
p2150
g0
(g134
g2
Ntp2151
Rp2152
(dp2153
g11
I00
sg18
I01
sg31
F0.471
sg19
I00
sbsS'mTEC_P0'
p2154
g0
(g134
g2
Ntp2155
Rp2156
(dp2157
g11
I00
sg18
I01
sg31
F-1.885
sg19
I00
sbsS'mTOB_P0'
p2158
g0
(g134
g2
Ntp2159
Rp2160
(dp2161
g11
I00
sg18
I01
sg31
F-1.026
sg19
I00
sbsS'mTOB_P1'
p2162
g0
(g134
g2
Ntp2163
Rp2164
(dp2165
g11
I00
sg18
I01
sg31
F0.253
sg19
I00
sbsS'mTIB_P0'
p2166
g0
(g134
g2
Ntp2167
Rp2168
(dp2169
g11
I00
sg18
I01
sg31
F-0.742
sg19
I00
sbsg64
(lp2170
g2126
ag2130
ag2134
ag2138
ag2142
ag2150
ag2154
ag2158
ag2162
ag2166
ag2146
aS'mTID_P0'
p2171
aS'mTID_P1'
p2172
asg2171
g0
(g134
g2
Ntp2173
Rp2174
(dp2175
g11
I00
sg18
I01
sg31
F-1.427
sg19
I00
sbsg2172
g0
(g134
g2
Ntp2176
Rp2177
(dp2178
g11
I00
sg18
I01
sg31
F0.433
sg19
I00
sbsg19
I00
sbsg12
I4
sg595
g0
(g227
g2
Ntp2179
Rp2180
(dp2181
g11
I00
sg18
I01
sg31
S'StripCPEfromTrackAngle'
p2182
sg19
I00
sbsg2121
g0
(g227
g2
Ntp2183
Rp2184
(dp2185
g11
I00
sg18
I01
sg31
g2182
sg19
I00
sbsg90
S'/cvmfs/cms.cern.ch/slc7_amd64_gcc700/cms/cmssw/CMSSW_10_2_3/python/RecoLocalTracker/SiStripRecHitConverter/StripCPEfromTrackAngle_cfi.py'
p2186
sg149
S'StripCPEfromTrackAngleESProducer'
p2187
sg160
S'StripCPEESProducer'
p2188
sbsI139625410650704
g0
(g187
g2
Ntp2189
Rp2190
(dp2191
g64
(lp2192
g2007
aS'compatibiltyWith11'
p2193
asg11
I00
sg19
I00
sg12
I53
sg90
g193
sg2007
g0
(g27
g2
Ntp2194
Rp2195
(dp2196
g11
I00
sg18
I00
sg31
I00
sg19
I00
sbsg2193
g0
(g27
g2
Ntp2197
Rp2198
(dp2199
g11
I00
sg18
I00
sg31
I01
sg19
I00
sbsg149
S'RPCGeometryESModule'
p2200
sg160
g2200
sbsI139625410696592
g0
(g187
g2
Ntp2201
Rp2202
(dp2203
g64
(lp2204
S'MergePosition'
p2205
aS'Exclude'
p2206
ag387
asg11
I00
sg387
g0
(g227
g2
Ntp2207
Rp2208
(dp2209
g11
I00
sg18
I01
sg31
g25
sg19
I00
sbsg19
I00
sg12
I53
sg2205
g0
(g27
g2
Ntp2210
Rp2211
(dp2212
g11
I00
sg18
I00
sg31
I00
sg19
I00
sbsg90
g193
sg149
S'hcalTopologyIdeal'
p2213
sg2206
g0
(g227
g2
Ntp2214
Rp2215
(dp2216
g11
I00
sg18
I00
sg31
g25
sg19
I00
sbsg160
S'HcalTopologyIdealEP'
p2217
sbsI139625410750032
g0
(g187
g2
Ntp2218
Rp2219
(dp2220
g64
(lp2221
g387
ag2007
ag2008
ag2009
ag1109
ag2010
ag2011
ag2012
ag418
asg11
I00
sg387
g0
(g227
g2
Ntp2222
Rp2223
(dp2224
g11
I00
sg18
I01
sg31
g1258
sg19
I01
sbsg19
I01
sg2008
g0
(g27
g2
Ntp2225
Rp2226
(dp2227
g11
I00
sg18
I00
sg31
I00
sg19
I00
sbsg90
S'/cvmfs/cms.cern.ch/slc7_amd64_gcc700/cms/cmssw/CMSSW_10_2_3/python/Geometry/CSCGeometryBuilder/idealForDigiCscGeometryDB_cff.py'
p2228
sg2009
g0
(g27
g2
Ntp2229
Rp2230
(dp2231
g11
I00
sg18
I01
sg31
I01
sg19
I00
sbsg1109
g0
(g227
g2
Ntp2232
Rp2233
(dp2234
g11
I00
sg18
I01
sg31
g1262
sg19
I01
sbsg2010
g0
(g27
g2
Ntp2235
Rp2236
(dp2237
g11
I00
sg18
I01
sg31
I00
sg19
I00
sbsg2007
g0
(g27
g2
Ntp2238
Rp2239
(dp2240
g11
I00
sg18
I01
sg31
I00
sg19
I00
sbsg12
I8
sg2012
g0
(g27
g2
Ntp2241
Rp2242
(dp2243
g11
I00
sg18
I01
sg31
I00
sg19
I00
sbsg149
S'idealForDigiCSCGeometry'
p2244
sg2011
g0
(g27
g2
Ntp2245
Rp2246
(dp2247
g11
I00
sg18
I01
sg31
I01
sg19
I00
sbsg418
g0
(g27
g2
Ntp2248
Rp2249
(dp2250
g11
I00
sg18
I01
sg31
I00
sg19
I01
sbsg160
g2002
sbsI139625410651728
g2050
sI139625411102480
g0
(g187
g2
Ntp2251
Rp2252
(dp2253
g64
(lp2254
g1162
aS'LorentzAngleDeconvMode'
p2255
aS'LorentzAnglePeakMode'
p2256
asg11
I00
sg19
I00
sg12
I53
sg90
g193
sg1162
g0
(g399
g2
Ntp2257
Rp2258
(dp2259
g11
I00
sg18
I01
sg19
I00
sg360
g0
(g227
g2
Ntp2260
Rp2261
(dp2262
g11
I00
sg18
I00
sg31
g25
sg19
I00
sbsg489
g0
(g227
g2
Ntp2263
Rp2264
(dp2265
g11
I00
sg18
I01
sg31
g1174
sg19
I00
sbsg64
(lp2266
g489
ag360
asbsg149
S'siStripLorentzAngleDepESProducer'
p2267
sg2256
g0
(g399
g2
Ntp2268
Rp2269
(dp2270
g11
I00
sg18
I01
sg19
I00
sg360
g0
(g227
g2
Ntp2271
Rp2272
(dp2273
g11
I00
sg18
I00
sg31
g1182
sg19
I00
sbsg489
g0
(g227
g2
Ntp2274
Rp2275
(dp2276
g11
I00
sg18
I01
sg31
S'SiStripLorentzAngleRcd'
p2277
sg19
I00
sbsg64
(lp2278
g489
ag360
asbsg160
S'SiStripLorentzAngleDepESProducer'
p2279
sg2255
g0
(g399
g2
Ntp2280
Rp2281
(dp2282
g11
I00
sg18
I01
sg19
I00
sg360
g0
(g227
g2
Ntp2283
Rp2284
(dp2285
g11
I00
sg18
I00
sg31
g1194
sg19
I00
sbsg489
g0
(g227
g2
Ntp2286
Rp2287
(dp2288
g11
I00
sg18
I01
sg31
g2277
sg19
I00
sbsg64
(lp2289
g489
ag360
asbsbsI139625410696976
g0
(g187
g2
Ntp2290
Rp2291
(dp2292
g64
(lp2293
sg11
I00
sg19
I00
sg12
I53
sg90
g193
sg149
S'CaloTowerTopologyEP'
p2294
sg160
g2294
sbsI139625410652432
g0
(g187
g2
Ntp2295
Rp2296
(dp2297
g64
(lp2298
sg11
I00
sg19
I00
sg12
I53
sg90
g193
sg149
S'TrackerRecoGeometryESProducer'
p2299
sg160
g2299
sbsI139625410906448
g9
sI139625410836432
g427
sI139625410652176
g1105
sI139625410794064
g0
(g187
g2
Ntp2300
Rp2301
(dp2302
g64
(lp2303
S'version'
p2304
ag1319
ag360
asg11
I00
sg19
I01
sg12
I53
sg90
g193
sg360
g0
(g227
g2
Ntp2305
Rp2306
(dp2307
g11
I00
sg18
I00
sg31
S'ParabolicMf'
p2308
sg19
I01
sbsg2304
g0
(g227
g2
Ntp2309
Rp2310
(dp2311
g11
I00
sg18
I01
sg31
S'Parabolic'
p2312
sg19
I00
sbsg1319
g0
(g272
g2
Ntp2313
Rp2314
(dp2315
g11
I00
sg18
I01
sg31
I-1
sg19
I00
sbsg149
S'ParabolicParametrizedMagneticFieldProducer'
p2316
sg160
S'AutoParametrizedMagneticFieldProducer'
p2317
sbsI139625411147920
g0
(g187
g2
Ntp2318
Rp2319
(dp2320
g64
(lp2321
g387
aS'PrintDebugOutput'
p2322
aS'ThresholdForReducedGranularity'
p2323
aS'UseEmptyRunInfo'
p2324
aS'ReduceGranularity'
p2325
ag483
asg11
I00
sg387
g0
(g227
g2
Ntp2326
Rp2327
(dp2328
g11
I00
sg18
I01
sg31
g25
sg19
I00
sbsg19
I01
sg12
I53
sg90
g193
sg2323
g0
(g134
g2
Ntp2329
Rp2330
(dp2331
g11
I00
sg18
I01
sg31
F0.3
sg19
I00
sbsg149
S'siStripQualityESProducer'
p2332
sg2324
g0
(g27
g2
Ntp2333
Rp2334
(dp2335
g11
I00
sg18
I01
sg31
I00
sg19
I00
sbsg2325
g0
(g27
g2
Ntp2336
Rp2337
(dp2338
g11
I00
sg18
I01
sg31
I00
sg19
I00
sbsg483
g0
(g484
g103
(lp2339
g0
(g399
g2
Ntp2340
Rp2341
(dp2342
g11
I00
sg18
I01
sg19
I00
sg489
g0
(g227
g2
Ntp2343
Rp2344
(dp2345
g11
I00
sg18
I01
sg31
S'SiStripDetVOffRcd'
p2346
sg19
I00
sbsg494
g0
(g227
g2
Ntp2347
Rp2348
(dp2349
g11
I00
sg18
I01
sg31
g25
sg19
I00
sbsg64
(lp2350
g489
ag494
asbag0
(g399
g2
Ntp2351
Rp2352
(dp2353
g11
I00
sg18
I01
sg19
I00
sg489
g0
(g227
g2
Ntp2354
Rp2355
(dp2356
g11
I00
sg18
I01
sg31
S'SiStripDetCablingRcd'
p2357
sg19
I00
sbsg494
g0
(g227
g2
Ntp2358
Rp2359
(dp2360
g11
I00
sg18
I01
sg31
g25
sg19
I00
sbsg64
(lp2361
g489
ag494
asbag0
(g399
g2
Ntp2362
Rp2363
(dp2364
g11
I00
sg18
I01
sg19
I00
sg489
g0
(g227
g2
Ntp2365
Rp2366
(dp2367
g11
I00
sg18
I01
sg31
S'RunInfoRcd'
p2368
sg19
I00
sbsg494
g0
(g227
g2
Ntp2369
Rp2370
(dp2371
g11
I00
sg18
I01
sg31
g25
sg19
I00
sbsg64
(lp2372
g489
ag494
asbag0
(g399
g2
Ntp2373
Rp2374
(dp2375
g11
I00
sg18
I01
sg19
I00
sg489
g0
(g227
g2
Ntp2376
Rp2377
(dp2378
g11
I00
sg18
I01
sg31
S'SiStripBadChannelRcd'
p2379
sg19
I00
sbsg494
g0
(g227
g2
Ntp2380
Rp2381
(dp2382
g11
I00
sg18
I01
sg31
g25
sg19
I00
sbsg64
(lp2383
g489
ag494
asbag0
(g399
g2
Ntp2384
Rp2385
(dp2386
g11
I00
sg18
I01
sg19
I00
sg489
g0
(g227
g2
Ntp2387
Rp2388
(dp2389
g11
I00
sg18
I01
sg31
S'SiStripBadFiberRcd'
p2390
sg19
I00
sbsg494
g0
(g227
g2
Ntp2391
Rp2392
(dp2393
g11
I00
sg18
I01
sg31
g25
sg19
I00
sbsg64
(lp2394
g489
ag494
asbag0
(g399
g2
Ntp2395
Rp2396
(dp2397
g11
I00
sg18
I01
sg19
I00
sg489
g0
(g227
g2
Ntp2398
Rp2399
(dp2400
g11
I00
sg18
I01
sg31
S'SiStripBadModuleRcd'
p2401
sg19
I00
sbsg494
g0
(g227
g2
Ntp2402
Rp2403
(dp2404
g11
I00
sg18
I01
sg31
g25
sg19
I00
sbsg64
(lp2405
g489
ag494
asbag0
(g399
g2
Ntp2406
Rp2407
(dp2408
g11
I00
sg18
I01
sg19
I00
sg489
g0
(g227
g2
Ntp2409
Rp2410
(dp2411
g11
I00
sg18
I01
sg31
S'SiStripBadStripRcd'
p2412
sg19
I00
sbsg494
g0
(g227
g2
Ntp2413
Rp2414
(dp2415
g11
I00
sg18
I01
sg31
g25
sg19
I00
sbsg64
(lp2416
g489
ag494
asbatp2417
Rp2418
(dp2419
g11
I00
sg18
I01
sg19
I00
sg129
I1
sbsg160
S'SiStripQualityESProducer'
p2420
sg2322
g0
(g27
g2
Ntp2421
Rp2422
(dp2423
g11
I00
sg18
I01
sg31
I00
sg19
I00
sbsbsI139625410748560
g384
sI139625410652368
g0
(g187
g2
Ntp2424
Rp2425
(dp2426
g64
(lp2427
sg11
I00
sg19
I00
sg12
I53
sg90
g193
sg149
S'GlobalTrackingGeometryESProducer'
p2428
sg160
g2428
sbsI139625411066128
g1205
sI139625411405584
g473
sI139625410750864
g0
(g187
g2
Ntp2429
Rp2430
(dp2431
g64
(lp2432
g387
ag1108
ag418
ag1109
asg11
I00
sg387
g0
(g227
g2
Ntp2433
Rp2434
(dp2435
g11
I00
sg18
I01
sg31
g1258
sg19
I01
sbsg19
I01
sg1109
g0
(g227
g2
Ntp2436
Rp2437
(dp2438
g11
I00
sg18
I01
sg31
g1262
sg19
I01
sbsg90
S'/cvmfs/cms.cern.ch/slc7_amd64_gcc700/cms/cmssw/CMSSW_10_2_3/python/Geometry/DTGeometryBuilder/idealForDigiDtGeometryDB_cff.py'
p2439
sg12
I8
sg149
S'idealForDigiDTGeometry'
p2440
sg1108
g0
(g27
g2
Ntp2441
Rp2442
(dp2443
g11
I00
sg18
I01
sg31
I00
sg19
I00
sbsg418
g0
(g27
g2
Ntp2444
Rp2445
(dp2446
g11
I00
sg18
I01
sg31
I00
sg19
I01
sbsg160
g1297
sbsI139625410695696
g0
(g187
g2
Ntp2447
Rp2448
(dp2449
g64
(lp2450
g418
asg11
I00
sg19
I01
sg12
I53
sg90
g193
sg149
S'HcalGeometryFromDBEP'
p2451
sg418
g0
(g27
g2
Ntp2452
Rp2453
(dp2454
g11
I00
sg18
I01
sg31
I01
sg19
I01
sbsg160
g2451
sbsI139625411103184
g1159
sI139625410652560
g0
(g187
g2
Ntp2455
Rp2456
(dp2457
g64
(lp2458
g387
asg11
I00
sg387
g0
(g227
g2
Ntp2459
Rp2460
(dp2461
g11
I00
sg18
I01
sg31
g25
sg19
I00
sbsg19
I00
sg12
I53
sg90
g193
sg149
S'trackerTopology'
p2462
sg160
S'TrackerTopologyEP'
p2463
sbsI139625410906576
g612
sI139625410697808
g1071
sI139625410838224
g293
sI139625410695760
g0
(g187
g2
Ntp2464
Rp2465
(dp2466
g64
(lp2467
sg11
I00
sg19
I00
sg12
I53
sg90
g193
sg149
S'HcalAlignmentEP'
p2468
sg160
g2468
sbsI139625411103504
g0
(g187
g2
Ntp2469
Rp2470
(dp2471
g64
(lp2472
g2121
ag595
ag2122
asg11
I00
sg19
I00
sg2122
g0
(g399
g2
Ntp2473
Rp2474
(dp2475
g11
I00
sg18
I01
sg19
I00
sg64
(lp2476
sbsg12
I53
sg595
g0
(g227
g2
Ntp2477
Rp2478
(dp2479
g11
I00
sg18
I01
sg31
S'stripCPE'
p2480
sg19
I00
sbsg2121
g0
(g227
g2
Ntp2481
Rp2482
(dp2483
g11
I00
sg18
I01
sg31
S'SimpleStripCPE'
p2484
sg19
I00
sbsg90
g193
sg149
S'stripCPEESProducer'
p2485
sg160
g2188
sbsI139625410698128
g1149
sI139625410837456
g241
sI139625410653136
g1333
sI139625410751568
g356
sI139625410697488
g0
(g187
g2
Ntp2486
Rp2487
(dp2488
g64
(lp2489
g418
asg11
I00
sg19
I00
sg12
I53
sg90
g193
sg149
S'ZdcGeometryFromDBEP'
p2490
sg418
g0
(g27
g2
Ntp2491
Rp2492
(dp2493
g11
I00
sg18
I01
sg31
I00
sg19
I00
sbsg160
g2490
sbsI139625411067152
g0
(g187
g2
Ntp2494
Rp2495
(dp2496
g64
(lp2497
g387
asg11
I00
sg387
g0
(g227
g2
Ntp2498
Rp2499
(dp2500
g11
I00
sg18
I01
sg31
g25
sg19
I00
sbsg19
I00
sg12
I53
sg90
g193
sg149
S'CastorDbProducer'
p2501
sg160
g2501
sbsI139625410919248
g517
sI139625410653584
g189
sI139625410652752
g625
sI139625410751952
g1281
sI139625411146128
g0
(g187
g2
Ntp2502
Rp2503
(dp2504
g64
(lp2505
sg11
I00
sg19
I00
sg12
I53
sg90
g193
sg149
S'sistripconn'
p2506
sg160
S'SiStripConnectivity'
p2507
sbsI139625410698832
g1125
sI139625410793552
g1316
sI139625410797200
g1230
sI139625410985296
g902
sI139625410653968
g630
sI139625410650384
g2004
sI139625410838352
g210
sI139625411251664
g1357
sI139625410654096
g0
(g187
g2
Ntp2508
Rp2509
(dp2510
g64
(lp2511
g418
asg11
I00
sg19
I01
sg12
I53
sg90
g193
sg149
S'EcalPreshowerGeometryFromDBEP'
p2512
sg418
g0
(g27
g2
Ntp2513
Rp2514
(dp2515
g11
I00
sg18
I01
sg31
I01
sg19
I01
sbsg160
g2512
sbsI139625410836048
g221
sI139625410695248
g2042
sI139625410749776
g0
(g187
g2
Ntp2516
Rp2517
(dp2518
g64
(lp2519
g387
asg11
I00
sg387
g0
(g227
g2
Ntp2520
Rp2521
(dp2522
g11
I00
sg18
I01
sg31
g1262
sg19
I01
sbsg19
I01
sg12
I5
sg90
S'/cvmfs/cms.cern.ch/slc7_amd64_gcc700/cms/cmssw/CMSSW_10_2_3/python/Alignment/CommonAlignmentProducer/fakeForIdealAlignmentProducer_cfi.py'
p2523
sg149
S'fakeForIdealAlignment'
p2524
sg160
S'FakeAlignmentProducer'
p2525
sbsI139625410904464
g450
sI139625411146000
g1338
sI139625410696080
g415
sI139625411006800
g1079
sI139625411006864
g0
(g187
g2
Ntp2526
Rp2527
(dp2528
g64
(lp2529
S'file'
p2530
aS'dump'
p2531
asg11
I00
sg19
I00
sg2531
g0
(g102
g103
(lp2532
g25
atp2533
Rp2534
(dp2535
g11
I00
sg18
I00
sg19
I00
sg129
I1
sbsg12
I53
sg90
g193
sg2530
g0
(g227
g2
Ntp2536
Rp2537
(dp2538
g11
I00
sg18
I00
sg31
g25
sg19
I00
sbsg149
S'hcal_db_producer'
p2539
sg160
S'HcalDbProducer'
p2540
sbsI139625410748880
g0
(g187
g2
Ntp2541
Rp2542
(dp2543
g64
(lp2544
g387
asg11
I00
sg387
g0
(g227
g2
Ntp2545
Rp2546
(dp2547
g11
I00
sg18
I01
sg31
g25
sg19
I00
sbsg19
I00
sg12
I53
sg90
g193
sg149
S'hcalDDDRecConstants'
p2548
sg160
S'HcalDDDRecConstantsESModule'
p2549
sbsI139625411367440
g1214
sI139625410698576
g0
(g187
g2
Ntp2550
Rp2551
(dp2552
g64
(lp2553
sg11
I00
sg19
I00
sg12
I53
sg90
g193
sg149
S'EcalElectronicsMappingBuilder'
p2554
sg160
g2554
sbsI139625410749072
g1252
sI139625410917072
g0
(g187
g2
Ntp2555
Rp2556
(dp2557
g64
(lp2558
sg11
I00
sg19
I00
sg12
I53
sg90
g193
sg149
S'EcalLaserCorrectionService'
p2559
sg160
g2559
sbsI139625410794256
g592
ssg2115
g2065
sg2200
g2190
sg2506
g2503
sg2490
g2487
sg2299
g2296
sg2267
g2252
sg2294
g2291
sg2316
g2301
sg2485
g2470
sg2462
g2456
sg2451
g2448
sg1202
g1205
sg2554
g2551
sg2187
g2118
sS'_Process__aliases'
p2560
(dp2561
sg2428
g2425
sg2559
g2556
sg2468
g2465
sg2512
g2509
sg2548
g2542
sg2501
g2495
sg2244
g2219
sS'_Process__subProcesses'
p2562
(lp2563
sg1228
g1230
sg2539
g2527
sg2213
g2202
sS'_Process__schedule'
p2564
Nsg2332
g2319
sg50
g450
sg2440
g2430
sS'_Process__modifiers'
p2565
(tsg89
g293
sS'_Process__filters'
p2566
(dp2567
g179
g241
sg89
g293
sg238
g221
ssS'_Process__esproducers'
p2568
(dp2569
g186
g189
sg1297
g1299
sg1314
g1316
sg2187
g2118
sg1069
g1071
sg1331
g1333
sg2428
g2425
sg354
g356
sg1103
g1105
sg1279
g1281
sg1336
g1338
sg2490
g2487
sg2468
g2465
sg2512
g2509
sg2501
g2495
sg2548
g2542
sg2002
g2004
sg2040
g2042
sg2048
g2050
sg1147
g1149
sg2244
g2219
sg413
g415
sg1157
g1159
sg2539
g2527
sg2115
g2065
sg2200
g2190
sg2506
g2503
sg2559
g2556
sg2554
g2551
sg2332
g2319
sg2440
g2430
sg2213
g2202
sg2316
g2301
sg2267
g2252
sg2294
g2291
sg478
g480
sg590
g592
sg2485
g2470
sg382
g384
sg623
g625
sg2462
g2456
sg2299
g2296
sg628
g630
sg2524
g2517
sg1250
g1252
sg2451
g2448
ssS'_Process__partialschedules'
p2570
(dp2571
sg2524
g2517
sb.