(dp1
S'OriginalConfig'
p2
ccopy_reg
_reconstructor
p3
(cWMCore.Configuration
Configuration
p4
c__builtin__
object
p5
NtRp6
(dp7
S'Site'
p8
g3
(cWMCore.Configuration
ConfigSection
p9
g5
NtRp10
(dp11
S'_internal_skipChecks'
p12
I00
sS'_internal_documentation'
p13
S''
sS'_internal_settings'
p14
c__builtin__
set
p15
((lp16
S'storageSite'
p17
atRp18
sS'_internal_name'
p19
g8
sS'_internal_docstrings'
p20
(dp21
sS'_internal_children'
p22
g15
((ltRp23
sg17
S'T2_CH_CERNBOX'
p24
sS'_internal_parent_ref'
p25
NsbsS'_internal_sections'
p26
(lp27
S'General'
p28
aS'JobType'
p29
aS'Data'
p30
ag8
aS'User'
p31
aS'Debug'
p32
asg28
g3
(g9
g5
NtRp33
(dp34
g12
I00
sg13
S''
sg14
g15
((ltRp35
sg19
g28
sg20
(dp36
sg22
g15
((ltRp37
sg25
NsbsS'_internal_webapps'
p38
(lp39
sg31
g3
(g9
g5
NtRp40
(dp41
g12
I00
sg13
S''
sg14
g15
((ltRp42
sg19
g31
sg20
(dp43
sg22
g15
((ltRp44
sg25
NsbsS'_internal_components'
p45
(lp46
sg32
g3
(g9
g5
NtRp47
(dp48
g12
I00
sg13
S''
sg14
g15
((ltRp49
sg19
g32
sg20
(dp50
sg22
g15
((ltRp51
sg25
Nsbsg30
g3
(g9
g5
NtRp52
(dp53
S'inputDataset'
p54
S'/EGamma/Run2018A-17Sep2018-v2/MINIAOD'
p55
sg12
I00
sS'unitsPerJob'
p56
I200
sg13
S''
sg14
g15
((lp57
g54
ag56
aS'inputDBS'
p58
aS'splitting'
p59
aS'outLFNDirBase'
p60
aS'lumiMask'
p61
atRp62
sg60
S'/store/user/ccosby/EGammaA/'
p63
sg19
g30
sg59
S'LumiBased'
p64
sg20
(dp65
sg22
g15
((ltRp66
sg58
S'global'
p67
sg25
Nsg61
S'/afs/cern.ch/user/c/ccosby/lowMassZPrime/triggerStudy/CMSSW_10_2_3/src/DileptonAnalysis/AnalysisStep/crab/Cert_314472-325175_13TeV_17SeptEarlyReReco2018ABC_PromptEraD_Collisions18_JSON.txt'
p68
sbsg29
g3
(g9
g5
NtRp69
(dp70
g12
I00
sS'pyCfgParams'
p71
(lp72
S'isMC=False'
p73
aS'useWeights=False'
p74
aS'useMediumID2016=False'
p75
asg13
S''
sg14
g15
((lp76
S'psetName'
p77
aS'pluginName'
p78
ag71
aS'allowUndistributedCMSSW'
p79
atRp80
sg19
g29
sg20
(dp81
sg78
S'Analysis'
p82
sg22
g15
((ltRp83
sg79
I01
sg77
S'../../test/tree_cfg.py'
p84
sg25
NsbsbsS'voGroup'
p85
S''
sS'Server'
p86
S'cmsweb.cern.ch'
p87
sS'instance'
p88
S'prod'
p89
sS'RequestName'
p90
V200515_020253:ccosby_crab_20200515_040238
p91
sS'voRole'
p92
S'NULL'
p93
sS'Port'
p94
S''
s.