ccopy_reg
_reconstructor
p0
(cFWCore.ParameterSet.Config
Process
p1
c__builtin__
object
p2
Ntp3
Rp4
(dp5
S'mmtree'
p6
g0
(cFWCore.ParameterSet.Modules
EDAnalyzer
p7
g2
Ntp8
Rp9
(dp10
S'_isFrozen'
p11
I00
sS'_lineNumber'
p12
I363
sS'filterresults'
p13
g0
(cFWCore.ParameterSet.Types
InputTag
p14
g2
Ntp15
Rp16
(dp17
g11
I00
sS'_ParameterTypeBase__isTracked'
p18
I01
sS'_isModified'
p19
I00
sS'_InputTag__moduleLabel'
p20
S'TriggerResults'
p21
sS'_InputTag__processName'
p22
S'PAT'
p23
sS'_InputTag__productInstance'
p24
S''
p25
sbsS'applyDimuonFilter'
p26
g0
(cFWCore.ParameterSet.Types
bool
p27
g2
Ntp28
Rp29
(dp30
g11
I00
sg18
I01
sS'_value'
p31
I01
sg19
I00
sbsS'applyHLTFilter'
p32
g0
(g27
g2
Ntp33
Rp34
(dp35
g11
I00
sg18
I01
sg31
I00
sg19
I00
sbsS'gens'
p36
g0
(g14
g2
Ntp37
Rp38
(dp39
g11
I00
sg18
I01
sg19
I00
sg20
S'prunedGenParticles'
p40
sg22
g25
sg24
g25
sbsS'triggerresults'
p41
g0
(g14
g2
Ntp42
Rp43
(dp44
g11
I00
sg18
I01
sg19
I00
sg20
g21
sg22
S'HLT'
p45
sg24
g25
sbsS'AlgInputTag'
p46
g0
(g14
g2
Ntp47
Rp48
(dp49
g11
I00
sg18
I01
sg19
I00
sg20
S'gtStage2Digis'
p50
sg22
g25
sg24
g25
sbsS'triggerobjects'
p51
g0
(g14
g2
Ntp52
Rp53
(dp54
g11
I00
sg18
I01
sg19
I00
sg20
S'slimmedPatTrigger'
p55
sg22
g25
sg24
g25
sbsS'useLHEWeights'
p56
g0
(g27
g2
Ntp57
Rp58
(dp59
g11
I00
sg18
I01
sg31
I01
sg19
I00
sbsS'geneventinfo'
p60
g0
(g14
g2
Ntp61
Rp62
(dp63
g11
I00
sg18
I01
sg19
I00
sg20
S'generator'
p64
sg22
g25
sg24
g25
sbsS'DumpTrigSummary'
p65
g0
(g27
g2
Ntp66
Rp67
(dp68
g11
I00
sg18
I01
sg31
I01
sg19
I00
sbsS'_Parameterizable__parameterNames'
p69
(lp70
g13
ag26
ag32
aS'vertices'
p71
aS'jets'
p72
ag46
ag56
ag60
ag65
aS'badhadron'
p73
aS'DumpRecord'
p74
aS'pileupinfo'
p75
aS'l1Seeds'
p76
aS'muons'
p77
aS'xsec'
p78
ag41
aS'addEventInfo'
p79
aS'met'
p80
aS'filterHToMuMu'
p81
aS'DumpTrigResults'
p82
aS'ExtInputTag'
p83
ag51
aS'useMediumID2016'
p84
aS'genlumiheader'
p85
ag36
aS'badmuon'
p86
aS'ReadPrescalesFromFile'
p87
aS'isMC'
p88
asg73
g0
(g14
g2
Ntp89
Rp90
(dp91
g11
I00
sg18
I01
sg19
I00
sg20
S'BadChargedCandidateFilter'
p92
sg22
g25
sg24
g25
sbsS'_filename'
p93
S'/afs/cern.ch/work/d/dsperka/Zdark/CMSSW_10_2_3/src/DileptonAnalysis/AnalysisStep/test/tree_cfg.py'
p94
sg74
g0
(g27
g2
Ntp95
Rp96
(dp97
g11
I00
sg18
I01
sg31
I01
sg19
I00
sbsg81
g0
(g27
g2
Ntp98
Rp99
(dp100
g11
I00
sg18
I01
sg31
I00
sg19
I00
sbsg75
g0
(g14
g2
Ntp101
Rp102
(dp103
g11
I00
sg18
I01
sg19
I00
sg20
S'slimmedAddPileupInfo'
p104
sg22
g25
sg24
g25
sbsg76
g0
(cFWCore.ParameterSet.Types
vstring
p105
c__builtin__
list
p106
(lp107
S'L1_DoubleMu_12_5'
p108
aS'L1_DoubleMu_12_8'
p109
aS'L1_DoubleMu_13_6'
p110
aS'L1_DoubleMu_15_5'
p111
aS'L1_DoubleMu_15_7'
p112
aS'L1_TripleMu_4_4_4'
p113
aS'L1_TripleMu_5_0_0'
p114
aS'L1_TripleMu_5_3_3'
p115
aS'L1_TripleMu_5_5_3'
p116
aS'L1_QuadMu0'
p117
aS'L1_DoubleMu0er1p5_SQ_OS_dR_Max1p4'
p118
aS'L1_DoubleMu4p5er2p0_SQ_OS_Mass7to18'
p119
aS'L1_DoubleMu4_SQ_OS_dR_Max1p2'
p120
aS'L1_DoubleMu5_SQ_OS_Mass7to18'
p121
aS'L1_DoubleMu_20_2_SQ_Mass_Max20'
p122
aS'L1_DoubleMu0er1p4_SQ_OS_dR_Max1p4'
p123
aS'L1_DoubleMu4p5_SQ_OS_dR_Max1p2'
p124
aS'L1_DoubleMu6_SQ_OS'
p125
aS'L1_DoubleMu0er1p5_SQ_dR_Max1p4'
p126
aS'L1_DoubleMu0er2_SQ_dR_Max1p4'
p127
aS'L1_DoubleMu0_SQ'
p128
atp129
Rp130
(dp131
g11
I00
sg18
I01
sg19
I00
sS'_nPerLine'
p132
I1
sbsg77
g0
(g14
g2
Ntp133
Rp134
(dp135
g11
I00
sg18
I01
sg19
I00
sg20
S'slimmedMuons'
p136
sg22
g25
sg24
g25
sbsg78
g0
(cFWCore.ParameterSet.Types
double
p137
g2
Ntp138
Rp139
(dp140
g11
I00
sg18
I01
sg31
F1.0
sg19
I00
sbsg79
g0
(g27
g2
Ntp141
Rp142
(dp143
g11
I00
sg18
I01
sg31
I01
sg19
I00
sbsg80
g0
(g14
g2
Ntp144
Rp145
(dp146
g11
I00
sg18
I01
sg19
I00
sg20
S'slimmedMETs'
p147
sg22
g25
sg24
g25
sbsS'_Labelable__label'
p148
g6
sg72
g0
(g14
g2
Ntp149
Rp150
(dp151
g11
I00
sg18
I01
sg19
I00
sg20
S'slimmedJets'
p152
sg22
g25
sg24
g25
sbsg82
g0
(g27
g2
Ntp153
Rp154
(dp155
g11
I00
sg18
I01
sg31
I01
sg19
I00
sbsS'_TypedParameterizable__type'
p156
S'TreeMaker'
p157
sg19
I00
sg83
g0
(g14
g2
Ntp158
Rp159
(dp160
g11
I00
sg18
I01
sg19
I00
sg20
g50
sg22
g25
sg24
g25
sbsg84
g0
(g27
g2
Ntp161
Rp162
(dp163
g11
I00
sg18
I01
sg31
I00
sg19
I00
sbsg85
g0
(g14
g2
Ntp164
Rp165
(dp166
g11
I00
sg18
I01
sg19
I00
sg20
g64
sg22
g25
sg24
g25
sbsg71
g0
(g14
g2
Ntp167
Rp168
(dp169
g11
I00
sg18
I01
sg19
I00
sg20
S'offlineSlimmedPrimaryVertices'
p170
sg22
g25
sg24
g25
sbsg86
g0
(g14
g2
Ntp171
Rp172
(dp173
g11
I00
sg18
I01
sg19
I00
sg20
S'BadPFMuonFilter'
p174
sg22
g25
sg24
g25
sbsg87
g0
(g27
g2
Ntp175
Rp176
(dp177
g11
I00
sg18
I01
sg31
I00
sg19
I00
sbsg88
g0
(g27
g2
Ntp178
Rp179
(dp180
g11
I00
sg18
I01
sg31
I01
sg19
I00
sbsbsS'CaloGeometryBuilder'
p181
g0
(cFWCore.ParameterSet.Modules
ESProducer
p182
g2
Ntp183
Rp184
(dp185
g69
(lp186
S'SelectedCalos'
p187
asg11
I00
sg19
I00
sg12
I53
sg93
S'/cvmfs/cms.cern.ch/slc7_amd64_gcc700/cms/cmssw/CMSSW_10_2_3/python/FWCore/ParameterSet/Modules.py'
p188
sg187
g0
(g105
g106
(lp189
S'HCAL'
p190
aS'ZDC'
p191
aS'CASTOR'
p192
aS'EcalBarrel'
p193
aS'EcalEndcap'
p194
aS'EcalPreshower'
p195
aS'TOWER'
p196
atp197
Rp198
(dp199
g11
I00
sg18
I01
sg19
I00
sg132
I1
sbsg148
g181
sg156
g181
sbsS'_Process__sequences'
p200
(dp201
S'metfilters'
p202
g0
(cFWCore.ParameterSet.SequenceTypes
Sequence
p203
g2
Ntp204
Rp205
(dp206
g11
I00
sS'_seq'
p207
g0
(cFWCore.ParameterSet.SequenceTypes
_SequenceCollection
p208
g2
Ntp209
Rp210
(dp211
S'_collection'
p212
(lp213
g0
(cFWCore.ParameterSet.Modules
EDFilter
p214
g2
Ntp215
Rp216
(dp217
g69
(lp218
S'filter'
p219
aS'src'
p220
aS'cut'
p221
asg11
I00
sg221
g0
(cFWCore.ParameterSet.Types
string
p222
g2
Ntp223
Rp224
(dp225
g11
I00
sg18
I01
sg31
S'!isFake && ndof > 4 && abs(z) <= 24 && position.Rho <= 2'
p226
sg19
I00
sbsg19
I00
sg220
g0
(g14
g2
Ntp227
Rp228
(dp229
g11
I00
sg18
I01
sg19
I00
sg20
g170
sg22
g25
sg24
g25
sbsg93
g94
sg219
g0
(g27
g2
Ntp230
Rp231
(dp232
g11
I00
sg18
I01
sg31
I01
sg19
I00
sbsg12
I239
sg148
S'goodVertices'
p233
sg156
S'VertexSelector'
p234
sbag0
(g214
g2
Ntp235
Rp236
(dp237
g69
(lp238
S'innerTrackRelErr'
p239
aS'PFCandidates'
p240
aS'filterType'
p241
aS'maxDR'
p242
aS'algo'
p243
aS'taggingMode'
p244
aS'segmentCompatibility'
p245
aS'minMuonTrackRelErr'
p246
aS'minMuonPt'
p247
ag77
aS'minPtDiffRel'
p248
asg11
I00
sg239
g0
(g137
g2
Ntp249
Rp250
(dp251
g11
I00
sg18
I01
sg31
F1.0
sg19
I00
sbsg19
I01
sg93
S'/cvmfs/cms.cern.ch/slc7_amd64_gcc700/cms/cmssw/CMSSW_10_2_3/python/RecoMET/METFilters/BadPFMuonFilter_cfi.py'
p252
sg241
g0
(g222
g2
Ntp253
Rp254
(dp255
g11
I00
sg18
I01
sg31
S'BadPFMuon'
p256
sg19
I00
sbsg240
g0
(g14
g2
Ntp257
Rp258
(dp259
g11
I00
sg18
I01
sg19
I00
sg20
S'packedPFCandidates'
p260
sg22
g25
sg24
g25
sbsg245
g0
(g137
g2
Ntp261
Rp262
(dp263
g11
I00
sg18
I01
sg31
F0.3
sg19
I00
sbsg248
g0
(g137
g2
Ntp264
Rp265
(dp266
g11
I00
sg18
I01
sg31
F0.0
sg19
I00
sbsg12
I15
sg243
g0
(cFWCore.ParameterSet.Types
int32
p267
g2
Ntp268
Rp269
(dp270
g11
I00
sg18
I01
sg31
I14
sg19
I00
sbsg244
g0
(g27
g2
Ntp271
Rp272
(dp273
g11
I00
sg18
I01
sg31
I01
sg19
I00
sbsg148
g174
sg242
g0
(g137
g2
Ntp274
Rp275
(dp276
g11
I00
sg18
I01
sg31
F0.001
sg19
I00
sbsg246
g0
(g137
g2
Ntp277
Rp278
(dp279
g11
I00
sg18
I01
sg31
F2.0
sg19
I00
sbsg247
g0
(g137
g2
Ntp280
Rp281
(dp282
g11
I00
sg18
I01
sg31
I100
sg19
I00
sbsg77
g0
(g14
g2
Ntp283
Rp284
(dp285
g11
I00
sg18
I01
sg19
I00
sg20
g136
sg22
g25
sg24
g25
sbsg156
S'BadParticleFilter'
p286
sbag0
(g214
g2
Ntp287
Rp288
(dp289
g69
(lp290
g239
ag240
ag244
ag241
ag242
ag245
ag246
ag247
ag77
ag248
asg11
I00
sg239
g0
(g137
g2
Ntp291
Rp292
(dp293
g11
I00
sg18
I01
sg31
F1.0
sg19
I00
sbsg19
I01
sg93
S'/cvmfs/cms.cern.ch/slc7_amd64_gcc700/cms/cmssw/CMSSW_10_2_3/python/RecoMET/METFilters/BadChargedCandidateFilter_cfi.py'
p294
sg241
g0
(g222
g2
Ntp295
Rp296
(dp297
g11
I00
sg18
I01
sg31
S'BadChargedCandidate'
p298
sg19
I00
sbsg240
g0
(g14
g2
Ntp299
Rp300
(dp301
g11
I00
sg18
I01
sg19
I00
sg20
g260
sg22
g25
sg24
g25
sbsg245
g0
(g137
g2
Ntp302
Rp303
(dp304
g11
I00
sg18
I01
sg31
F0.3
sg19
I00
sbsg12
I14
sg248
g0
(g137
g2
Ntp305
Rp306
(dp307
g11
I00
sg18
I01
sg31
F1e-05
sg19
I00
sbsg244
g0
(g27
g2
Ntp308
Rp309
(dp310
g11
I00
sg18
I01
sg31
I01
sg19
I00
sbsg148
g92
sg242
g0
(g137
g2
Ntp311
Rp312
(dp313
g11
I00
sg18
I01
sg31
F1e-05
sg19
I00
sbsg246
g0
(g137
g2
Ntp314
Rp315
(dp316
g11
I00
sg18
I01
sg31
F2.0
sg19
I00
sbsg247
g0
(g137
g2
Ntp317
Rp318
(dp319
g11
I00
sg18
I01
sg31
F100.0
sg19
I00
sbsg77
g0
(g14
g2
Ntp320
Rp321
(dp322
g11
I00
sg18
I01
sg19
I00
sg20
g136
sg22
g25
sg24
g25
sbsg156
g286
sbasbsg148
g202
sg19
I00
sS'_tasks'
p323
g0
(cFWCore.ParameterSet.OrderedSet
OrderedSet
p324
g2
Ntp325
Rp326
(dp327
S'map'
p328
(dp329
sS'end'
p330
(lp331
Nag331
ag331
asbsbssS'_Process__source'
p332
g0
(cFWCore.ParameterSet.Modules
Source
p333
g2
Ntp334
Rp335
(dp336
g69
(lp337
S'skipEvents'
p338
aS'fileNames'
p339
asg11
I00
sg19
I00
sg12
I193
sg93
g188
sg338
g0
(cFWCore.ParameterSet.Types
uint32
p340
g2
Ntp341
Rp342
(dp343
g11
I00
sg18
I00
sg31
I0
sg19
I00
sbsg339
g0
(g105
g106
(lp344
tp345
Rp346
(dp347
g11
I00
sg18
I00
sg19
I00
sg132
I1
sbsg156
S'PoolSource'
p348
sbsS'XMLFromDBSource'
p349
g0
(g182
g2
Ntp350
Rp351
(dp352
g69
(lp353
S'rootDDName'
p354
aS'label'
p355
asg11
I00
sg19
I00
sg12
I53
sg93
g188
sg354
g0
(g222
g2
Ntp356
Rp357
(dp358
g11
I00
sg18
I01
sg31
S'cms:OCMS'
p359
sg19
I00
sbsg355
g0
(g222
g2
Ntp360
Rp361
(dp362
g11
I00
sg18
I01
sg31
S'Extended'
p363
sg19
I00
sbsg148
g349
sg156
S'XMLIdealGeometryESProducer'
p364
sbsS'TFileService'
p365
g0
(cFWCore.ParameterSet.Modules
Service
p366
g2
Ntp367
Rp368
(dp369
g69
(lp370
S'fileName'
p371
asg11
I00
sS'_inProcess'
p372
I01
sg19
I00
sg12
I11
sg93
g188
sg371
g0
(g222
g2
Ntp373
Rp374
(dp375
g11
I00
sg18
I01
sg31
S'tree.root'
p376
sg19
I00
sbsg156
g365
sbsS'hcalDDDSimConstants'
p377
g0
(g182
g2
Ntp378
Rp379
(dp380
g69
(lp381
S'appendToDataLabel'
p382
asg11
I00
sg382
g0
(g222
g2
Ntp383
Rp384
(dp385
g11
I00
sg18
I01
sg31
g25
sg19
I00
sbsg19
I00
sg12
I53
sg93
g188
sg148
g377
sg156
S'HcalDDDSimConstantsESModule'
p386
sbsS'source'
p387
g335
sS'RandomNumberGeneratorService'
p388
g0
(g366
g2
Ntp389
Rp390
(dp391
g69
(lp392
S'correctedMuons'
p393
asg11
I00
sg372
I01
sg19
I00
sg12
I11
sg93
g188
sg393
g0
(cFWCore.ParameterSet.Types
PSet
p394
g2
Ntp395
Rp396
(dp397
g11
I00
sg18
I01
sg19
I00
sS'initialSeed'
p398
g0
(g340
g2
Ntp399
Rp400
(dp401
g11
I00
sg18
I00
sg31
I1
sg19
I00
sbsg69
(lp402
g398
aS'engineName'
p403
asg403
g0
(g222
g2
Ntp404
Rp405
(dp406
g11
I00
sg18
I00
sg31
S'TRandom3'
p407
sg19
I00
sbsbsg156
g388
sbsS'CaloTowerGeometryFromDBEP'
p408
g0
(g182
g2
Ntp409
Rp410
(dp411
g69
(lp412
S'applyAlignment'
p413
asg11
I00
sg19
I00
sg12
I53
sg93
g188
sg148
g408
sg413
g0
(g27
g2
Ntp414
Rp415
(dp416
g11
I00
sg18
I01
sg31
I00
sg19
I00
sbsg156
g408
sbsS'_Process__InExtendCall'
p417
I00
sS'_Process__producers'
p418
(dp419
g393
g0
(cFWCore.ParameterSet.Modules
EDProducer
p420
g2
Ntp421
Rp422
(dp423
g69
(lp424
g88
ag220
aS'data'
p425
aS'correct'
p426
ag36
asg11
I00
sg19
I00
sg220
g0
(g14
g2
Ntp427
Rp428
(dp429
g11
I00
sg18
I01
sg19
I00
sg20
g136
sg22
g25
sg24
g25
sbsg93
g94
sg36
g0
(g14
g2
Ntp430
Rp431
(dp432
g11
I00
sg18
I01
sg19
I00
sg20
g40
sg22
g25
sg24
g25
sbsg148
g393
sg12
I248
sg88
g0
(g27
g2
Ntp433
Rp434
(dp435
g11
I00
sg18
I01
sg31
I01
sg19
I00
sbsg425
g0
(g222
g2
Ntp436
Rp437
(dp438
g11
I00
sg18
I01
sg31
S'../data/Rochester'
p439
sg19
I00
sbsg426
g0
(g27
g2
Ntp440
Rp441
(dp442
g11
I00
sg18
I01
sg31
I01
sg19
I00
sbsg156
S'RochesterCorrectedMuonProducer'
p443
sbsg50
g0
(g420
g2
Ntp444
Rp445
(dp446
g69
(lp447
S'Setup'
p448
aS'FedIds'
p449
aS'InputLabel'
p450
asg11
I00
sg19
I01
sg12
I6
sg93
S'/cvmfs/cms.cern.ch/slc7_amd64_gcc700/cms/cmssw/CMSSW_10_2_3/python/EventFilter/L1TRawToDigi/gtStage2Digis_cfi.py'
p451
sg448
g0
(g222
g2
Ntp452
Rp453
(dp454
g11
I00
sg18
I01
sg31
S'stage2::GTSetup'
p455
sg19
I00
sbsg450
g0
(g14
g2
Ntp456
Rp457
(dp458
g11
I00
sg18
I01
sg19
I00
sg20
S'hltFEDSelectorL1'
p459
sg22
g25
sg24
g25
sbsg148
g50
sg449
g0
(cFWCore.ParameterSet.Types
vint32
p460
g106
(lp461
I1404
atp462
Rp463
(dp464
g11
I00
sg18
I01
sg19
I00
sbsg156
S'L1TRawToDigi'
p465
sbsS'randomEngineStateProducer'
p466
g0
(g420
g2
Ntp467
Rp468
(dp469
g69
(lp470
sg11
I00
sg19
I00
sg12
I162
sg93
S'/cvmfs/cms.cern.ch/slc7_amd64_gcc700/cms/cmssw/CMSSW_10_2_3/python/IOMC/RandomEngine/IOMC_cff.py'
p471
sg148
g466
sg156
S'RandomEngineStateProducer'
p472
sbssS'siPixelQualityESProducer'
p473
g0
(g182
g2
Ntp474
Rp475
(dp476
g69
(lp477
S'ListOfRecordToMerge'
p478
asg11
I00
sg19
I01
sg12
I53
sg93
g188
sg478
g0
(cFWCore.ParameterSet.Types
VPSet
p479
g106
(lp480
g0
(g394
g2
Ntp481
Rp482
(dp483
g11
I00
sg18
I01
sg19
I00
sS'record'
p484
g0
(g222
g2
Ntp485
Rp486
(dp487
g11
I00
sg18
I01
sg31
S'SiPixelQualityFromDbRcd'
p488
sg19
I00
sbsS'tag'
p489
g0
(g222
g2
Ntp490
Rp491
(dp492
g11
I00
sg18
I01
sg31
g25
sg19
I00
sbsg69
(lp493
g484
ag489
asbag0
(g394
g2
Ntp494
Rp495
(dp496
g11
I00
sg18
I01
sg19
I00
sg484
g0
(g222
g2
Ntp497
Rp498
(dp499
g11
I00
sg18
I01
sg31
S'SiPixelDetVOffRcd'
p500
sg19
I00
sbsg489
g0
(g222
g2
Ntp501
Rp502
(dp503
g11
I00
sg18
I01
sg31
g25
sg19
I00
sbsg69
(lp504
g484
ag489
asbatp505
Rp506
(dp507
g11
I00
sg18
I01
sg19
I00
sg132
I1
sbsg148
g473
sg156
S'SiPixelQualityESProducer'
p508
sbsS'GlobalTag'
p509
g0
(cFWCore.ParameterSet.Modules
ESSource
p510
g2
Ntp511
Rp512
(dp513
g69
(lp514
S'DBParameters'
p515
aS'connect'
p516
aS'globaltag'
p517
aS'RefreshEachRun'
p518
aS'pfnPrefix'
p519
aS'snapshotTime'
p520
aS'toGet'
p521
aS'pfnPostfix'
p522
aS'RefreshAlways'
p523
aS'ReconnectEachRun'
p524
aS'RefreshOpenIOVs'
p525
aS'DumpStat'
p526
asg11
I00
sg93
S'/cvmfs/cms.cern.ch/slc7_amd64_gcc700/cms/cmssw/CMSSW_10_2_3/python/CondCore/ESSources/CondDBESSource_cfi.py'
p527
sg19
I01
sg517
g0
(g222
g2
Ntp528
Rp529
(dp530
g11
I00
sg18
I01
sg31
S'102X_upgrade2018_realistic_v18'
p531
sg19
I01
sbsg518
g0
(g27
g2
Ntp532
Rp533
(dp534
g11
I00
sg18
I00
sg31
I00
sg19
I00
sbsg519
g0
(g222
g2
Ntp535
Rp536
(dp537
g11
I00
sg18
I00
sg31
g25
sg19
I00
sbsg520
g0
(g222
g2
Ntp538
Rp539
(dp540
g11
I00
sg18
I01
sg31
g25
sg19
I00
sbsg521
g0
(g479
g106
(lp541
tp542
Rp543
(dp544
g11
I00
sg18
I01
sg19
I00
sg132
I1
sbsg522
g0
(g222
g2
Ntp545
Rp546
(dp547
g11
I00
sg18
I00
sg31
g25
sg19
I00
sbsg515
g0
(g394
g2
Ntp548
Rp549
(dp550
g11
I00
sg18
I01
sS'authenticationPath'
p551
g0
(g222
g2
Ntp552
Rp553
(dp554
g11
I00
sg18
I00
sg31
g25
sg19
I00
sbsg19
I00
sS'messageLevel'
p555
g0
(g267
g2
Ntp556
Rp557
(dp558
g11
I00
sg18
I00
sg31
I0
sg19
I00
sbsg69
(lp559
g555
aS'security'
p560
aS'authenticationSystem'
p561
ag551
asg560
g0
(g222
g2
Ntp562
Rp563
(dp564
g11
I00
sg18
I00
sg31
g25
sg19
I00
sbsg561
g0
(g267
g2
Ntp565
Rp566
(dp567
g11
I00
sg18
I00
sg31
I0
sg19
I00
sbsbsg523
g0
(g27
g2
Ntp568
Rp569
(dp570
g11
I00
sg18
I00
sg31
I00
sg19
I00
sbsg12
I19
sg516
g0
(g222
g2
Ntp571
Rp572
(dp573
g11
I00
sg18
I01
sg31
S'frontier://FrontierProd/CMS_CONDITIONS'
p574
sg19
I00
sbsg524
g0
(g27
g2
Ntp575
Rp576
(dp577
g11
I00
sg18
I00
sg31
I00
sg19
I00
sbsg148
g509
sg525
g0
(g27
g2
Ntp578
Rp579
(dp580
g11
I00
sg18
I00
sg31
I00
sg19
I00
sbsg526
g0
(g27
g2
Ntp581
Rp582
(dp583
g11
I00
sg18
I00
sg31
I00
sg19
I00
sbsg156
S'PoolDBESSource'
p584
sbsS'_Process__endpaths'
p585
g0
(cFWCore.ParameterSet.DictTypes
SortedKeysDict
p586
c__builtin__
dict
p587
(dp588
tp589
Rp590
(dp591
S'list'
p592
(lp593
sbsS'p'
p594
g0
(cFWCore.ParameterSet.SequenceTypes
Path
p595
g2
Ntp596
Rp597
(dp598
g11
I00
sg207
g0
(g208
g2
Ntp599
Rp600
(dp601
g212
(lp602
g0
(g7
g2
Ntp603
Rp604
(dp605
g69
(lp606
g56
aS'genInfo'
p607
aS'lheInfo'
p608
ag75
asg11
I00
sg19
I00
sg607
g0
(g14
g2
Ntp609
Rp610
(dp611
g11
I00
sg18
I01
sg19
I00
sg20
g64
sg22
g25
sg24
g25
sbsg93
g94
sg608
g0
(g14
g2
Ntp612
Rp613
(dp614
g11
I00
sg18
I01
sg19
I00
sg20
S'externalLHEProducer'
p615
sg22
g25
sg24
g25
sbsg148
S'gentree'
p616
sg12
I232
sg75
g0
(g14
g2
Ntp617
Rp618
(dp619
g11
I00
sg18
I01
sg19
I00
sg20
S'addPileupInfo'
p620
sg22
g25
sg24
g25
sbsg56
g0
(g27
g2
Ntp621
Rp622
(dp623
g11
I00
sg18
I01
sg31
I01
sg19
I00
sbsg156
S'LHEWeightsTreeMaker'
p624
sbag205
ag9
asbsg148
g594
sg19
I00
sg323
g0
(g324
g2
Ntp625
Rp626
(dp627
g328
(dp628
sg330
(lp629
Nag629
ag629
asbsbsS'MuonDetLayerGeometryESProducer'
p630
g0
(g182
g2
Ntp631
Rp632
(dp633
g69
(lp634
sg11
I00
sg19
I00
sg12
I53
sg93
g188
sg148
g630
sg156
g630
sbsS'EcalEndcapGeometryFromDBEP'
p635
g0
(g182
g2
Ntp636
Rp637
(dp638
g69
(lp639
g413
asg11
I00
sg19
I01
sg12
I53
sg93
g188
sg148
g635
sg413
g0
(g27
g2
Ntp640
Rp641
(dp642
g11
I00
sg18
I01
sg31
I01
sg19
I01
sbsg156
g635
sbsS'MessageLogger'
p643
g0
(g366
g2
Ntp644
Rp645
(dp646
g11
I00
sS'suppressInfo'
p647
g0
(g105
g106
(lp648
tp649
Rp650
(dp651
g11
I00
sg18
I00
sg19
I00
sg132
I1
sbsS'suppressDebug'
p652
g0
(g105
g106
(lp653
tp654
Rp655
(dp656
g11
I00
sg18
I00
sg19
I00
sg132
I1
sbsS'cout'
p657
g0
(g394
g2
Ntp658
Rp659
(dp660
g11
I00
sg18
I00
sS'placeholder'
p661
g0
(g27
g2
Ntp662
Rp663
(dp664
g11
I00
sg18
I00
sg31
I01
sg19
I00
sbsg19
I00
sg69
(lp665
g661
asbsg12
I11
sS'debugModules'
p666
g0
(g105
g106
(lp667
tp668
Rp669
(dp670
g11
I00
sg18
I00
sg19
I00
sg132
I1
sbsg156
g643
sS'fwkJobReports'
p671
g0
(g105
g106
(lp672
S'FrameworkJobReport'
p673
atp674
Rp675
(dp676
g11
I00
sg18
I00
sg19
I00
sg132
I1
sbsg69
(lp677
g647
aS'debugs'
p678
ag652
ag657
aS'cerr_stats'
p679
aS'warnings'
p680
aS'default'
p681
aS'statistics'
p682
aS'cerr'
p683
ag673
aS'suppressWarning'
p684
aS'errors'
p685
aS'destinations'
p686
ag666
aS'infos'
p687
aS'categories'
p688
ag671
asg682
g0
(g105
g106
(lp689
g679
atp690
Rp691
(dp692
g11
I00
sg18
I00
sg19
I00
sg132
I1
sbsg93
g188
sg686
g0
(g105
g106
(lp693
g657
ag683
atp694
Rp695
(dp696
g11
I00
sg18
I00
sg19
I01
sg132
I1
sbsg678
g0
(g394
g2
Ntp697
Rp698
(dp699
g11
I00
sg18
I00
sg661
g0
(g27
g2
Ntp700
Rp701
(dp702
g11
I00
sg18
I00
sg31
I01
sg19
I00
sbsg19
I00
sg69
(lp703
g661
asbsg680
g0
(g394
g2
Ntp704
Rp705
(dp706
g11
I00
sg18
I00
sg661
g0
(g27
g2
Ntp707
Rp708
(dp709
g11
I00
sg18
I00
sg31
I01
sg19
I00
sbsg19
I00
sg69
(lp710
g661
asbsg685
g0
(g394
g2
Ntp711
Rp712
(dp713
g11
I00
sg18
I00
sg661
g0
(g27
g2
Ntp714
Rp715
(dp716
g11
I00
sg18
I00
sg31
I01
sg19
I00
sbsg19
I00
sg69
(lp717
g661
asbsg673
g0
(g394
g2
Ntp718
Rp719
(dp720
g11
I00
sg18
I00
sg19
I00
sg681
g0
(g394
g2
Ntp721
Rp722
(dp723
g11
I00
sg18
I00
sS'limit'
p724
g0
(g267
g2
Ntp725
Rp726
(dp727
g11
I00
sg18
I00
sg31
I0
sg19
I00
sbsg19
I00
sg69
(lp728
g724
asbsS'FwkJob'
p729
g0
(g394
g2
Ntp730
Rp731
(dp732
g11
I00
sg18
I00
sg19
I00
sg724
g0
(g267
g2
Ntp733
Rp734
(dp735
g11
I00
sg18
I00
sg31
I10000000
sg19
I00
sbsg69
(lp736
S'optionalPSet'
p737
ag724
asg737
g0
(g27
g2
Ntp738
Rp739
(dp740
g11
I00
sg18
I00
sg31
I01
sg19
I00
sbsbsg69
(lp741
g681
ag737
ag729
asg737
g0
(g27
g2
Ntp742
Rp743
(dp744
g11
I00
sg18
I00
sg31
I01
sg19
I00
sbsbsg684
g0
(g105
g106
(lp745
tp746
Rp747
(dp748
g11
I00
sg18
I00
sg19
I00
sg132
I1
sbsg687
g0
(g394
g2
Ntp749
Rp750
(dp751
g11
I00
sg18
I00
sg19
I00
sS'Root_NoDictionary'
p752
g0
(g394
g2
Ntp753
Rp754
(dp755
g11
I00
sg18
I00
sg19
I00
sg724
g0
(g267
g2
Ntp756
Rp757
(dp758
g11
I00
sg18
I00
sg31
I0
sg19
I00
sbsg69
(lp759
g737
ag724
asg737
g0
(g27
g2
Ntp760
Rp761
(dp762
g11
I00
sg18
I00
sg31
I01
sg19
I00
sbsbsg69
(lp763
g737
ag752
ag661
asg737
g0
(g27
g2
Ntp764
Rp765
(dp766
g11
I00
sg18
I00
sg31
I01
sg19
I00
sbsg661
g0
(g27
g2
Ntp767
Rp768
(dp769
g11
I00
sg18
I00
sg31
I01
sg19
I00
sbsbsg688
g0
(g105
g106
(lp770
g729
aS'FwkReport'
p771
aS'FwkSummary'
p772
ag752
atp773
Rp774
(dp775
g11
I00
sg18
I00
sg19
I00
sg132
I1
sbsg19
I01
sg679
g0
(g394
g2
Ntp776
Rp777
(dp778
g11
I00
sg18
I00
sg19
I00
sg737
g0
(g27
g2
Ntp779
Rp780
(dp781
g11
I00
sg18
I00
sg31
I01
sg19
I00
sbsg69
(lp782
S'threshold'
p783
aS'output'
p784
ag737
asg783
g0
(g222
g2
Ntp785
Rp786
(dp787
g11
I00
sg18
I00
sg31
S'WARNING'
p788
sg19
I00
sbsg784
g0
(g222
g2
Ntp789
Rp790
(dp791
g11
I00
sg18
I00
sg31
g683
sg19
I00
sbsbsg681
g0
(g394
g2
Ntp792
Rp793
(dp794
g11
I00
sg18
I00
sg19
I00
sg69
(lp795
sbsg372
I01
sg683
g0
(g394
g2
Ntp796
Rp797
(dp798
g11
I00
sg18
I00
sS'noTimeStamps'
p799
g0
(g27
g2
Ntp800
Rp801
(dp802
g11
I00
sg18
I00
sg31
I00
sg19
I00
sbsg771
g0
(g394
g2
Ntp803
Rp804
(dp805
g11
I00
sg18
I00
sg19
I01
sS'reportEvery'
p806
g0
(g267
g2
Ntp807
Rp808
(dp809
g11
I00
sg18
I00
sg31
I100
sg19
I01
sbsg724
g0
(g267
g2
Ntp810
Rp811
(dp812
g11
I00
sg18
I00
sg31
I10000000
sg19
I00
sbsg69
(lp813
g806
ag737
ag724
asg737
g0
(g27
g2
Ntp814
Rp815
(dp816
g11
I00
sg18
I00
sg31
I01
sg19
I00
sbsbsg19
I00
sg681
g0
(g394
g2
Ntp817
Rp818
(dp819
g11
I00
sg18
I00
sg724
g0
(g267
g2
Ntp820
Rp821
(dp822
g11
I00
sg18
I00
sg31
I10000000
sg19
I00
sbsg19
I00
sg69
(lp823
g724
asbsg752
g0
(g394
g2
Ntp824
Rp825
(dp826
g11
I00
sg18
I00
sg19
I00
sg724
g0
(g267
g2
Ntp827
Rp828
(dp829
g11
I00
sg18
I00
sg31
I0
sg19
I00
sbsg69
(lp830
g737
ag724
asg737
g0
(g27
g2
Ntp831
Rp832
(dp833
g11
I00
sg18
I00
sg31
I01
sg19
I00
sbsbsS'INFO'
p834
g0
(g394
g2
Ntp835
Rp836
(dp837
g11
I00
sg18
I00
sg724
g0
(g267
g2
Ntp838
Rp839
(dp840
g11
I00
sg18
I00
sg31
I0
sg19
I00
sbsg19
I00
sg69
(lp841
g724
asbsg737
g0
(g27
g2
Ntp842
Rp843
(dp844
g11
I00
sg18
I00
sg31
I01
sg19
I00
sbsg729
g0
(g394
g2
Ntp845
Rp846
(dp847
g11
I00
sg18
I00
sg19
I00
sg724
g0
(g267
g2
Ntp848
Rp849
(dp850
g11
I00
sg18
I00
sg31
I0
sg19
I00
sbsg69
(lp851
g737
ag724
asg737
g0
(g27
g2
Ntp852
Rp853
(dp854
g11
I00
sg18
I00
sg31
I01
sg19
I00
sbsbsg772
g0
(g394
g2
Ntp855
Rp856
(dp857
g11
I00
sg18
I00
sg19
I00
sg806
g0
(g267
g2
Ntp858
Rp859
(dp860
g11
I00
sg18
I00
sg31
I1
sg19
I00
sbsg724
g0
(g267
g2
Ntp861
Rp862
(dp863
g11
I00
sg18
I00
sg31
I10000000
sg19
I00
sbsg69
(lp864
g806
ag737
ag724
asg737
g0
(g27
g2
Ntp865
Rp866
(dp867
g11
I00
sg18
I00
sg31
I01
sg19
I00
sbsbsg69
(lp868
g834
ag799
ag771
ag681
ag752
ag783
ag729
ag772
ag737
asg783
g0
(g222
g2
Ntp869
Rp870
(dp871
g11
I00
sg18
I00
sg31
g834
sg19
I00
sbsbsbsS'_Process__services'
p872
(dp873
g643
g645
sS'DQMStore'
p874
g0
(g366
g2
Ntp875
Rp876
(dp877
g69
(lp878
S'referenceFileName'
p879
aS'verbose'
p880
aS'collateHistograms'
p881
aS'enableMultiThread'
p882
aS'forceResetOnBeginLumi'
p883
aS'LSbasedMode'
p884
aS'verboseQT'
p885
asg11
I00
sg372
I01
sg880
g0
(g267
g2
Ntp886
Rp887
(dp888
g11
I00
sg18
I00
sg31
I0
sg19
I00
sbsg881
g0
(g27
g2
Ntp889
Rp890
(dp891
g11
I00
sg18
I00
sg31
I00
sg19
I00
sbsg879
g0
(g222
g2
Ntp892
Rp893
(dp894
g11
I00
sg18
I00
sg31
g25
sg19
I00
sbsg882
g0
(g27
g2
Ntp895
Rp896
(dp897
g11
I00
sg18
I00
sg31
I00
sg19
I00
sbsg883
g0
(g27
g2
Ntp898
Rp899
(dp900
g11
I00
sg18
I00
sg31
I00
sg19
I00
sbsg12
I11
sg884
g0
(g27
g2
Ntp901
Rp902
(dp903
g11
I00
sg18
I00
sg31
I00
sg19
I00
sbsg93
g188
sg885
g0
(g267
g2
Ntp904
Rp905
(dp906
g11
I00
sg18
I00
sg31
I0
sg19
I00
sbsg156
g874
sg19
I00
sbsg388
g390
sg365
g368
ssg874
g876
sS'HcalTimeSlewEP'
p907
g0
(g510
g2
Ntp908
Rp909
(dp910
g69
(lp911
S'timeSlewParametersM3'
p912
aS'timeSlewParametersM2'
p913
ag382
asg11
I00
sg912
g0
(g479
g106
(lp914
g0
(g394
g2
Ntp915
Rp916
(dp917
g11
I00
sg18
I01
sS'tspar2'
p918
g0
(g137
g2
Ntp919
Rp920
(dp921
g11
I00
sg18
I01
sg31
F0.0
sg19
I00
sbsg19
I00
sS'tspar0'
p922
g0
(g137
g2
Ntp923
Rp924
(dp925
g11
I00
sg18
I01
sg31
F12.2999
sg19
I00
sbsS'tspar1'
p926
g0
(g137
g2
Ntp927
Rp928
(dp929
g11
I00
sg18
I01
sg31
F-2.19142
sg19
I00
sbsS'tspar1_siPM'
p930
g0
(g137
g2
Ntp931
Rp932
(dp933
g11
I00
sg18
I01
sg31
F0.0
sg19
I00
sbsS'cap'
p934
g0
(g137
g2
Ntp935
Rp936
(dp937
g11
I00
sg18
I01
sg31
F6.0
sg19
I00
sbsS'tspar0_siPM'
p938
g0
(g137
g2
Ntp939
Rp940
(dp941
g11
I00
sg18
I01
sg31
F0.0
sg19
I00
sbsg69
(lp942
g918
ag922
ag926
ag930
ag934
ag938
aS'tspar2_siPM'
p943
asg943
g0
(g137
g2
Ntp944
Rp945
(dp946
g11
I00
sg18
I01
sg31
F0.0
sg19
I00
sbsbag0
(g394
g2
Ntp947
Rp948
(dp949
g11
I00
sg18
I01
sg918
g0
(g137
g2
Ntp950
Rp951
(dp952
g11
I00
sg18
I01
sg31
F32.0
sg19
I00
sbsg19
I00
sg922
g0
(g137
g2
Ntp953
Rp954
(dp955
g11
I00
sg18
I01
sg31
F15.5
sg19
I00
sbsg926
g0
(g137
g2
Ntp956
Rp957
(dp958
g11
I00
sg18
I01
sg31
F-3.2
sg19
I00
sbsg930
g0
(g137
g2
Ntp959
Rp960
(dp961
g11
I00
sg18
I01
sg31
F0.0
sg19
I00
sbsg934
g0
(g137
g2
Ntp962
Rp963
(dp964
g11
I00
sg18
I01
sg31
F6.0
sg19
I00
sbsg938
g0
(g137
g2
Ntp965
Rp966
(dp967
g11
I00
sg18
I01
sg31
F0.0
sg19
I00
sbsg69
(lp968
g918
ag922
ag926
ag930
ag934
ag938
ag943
asg943
g0
(g137
g2
Ntp969
Rp970
(dp971
g11
I00
sg18
I01
sg31
F0.0
sg19
I00
sbsbag0
(g394
g2
Ntp972
Rp973
(dp974
g11
I00
sg18
I01
sg918
g0
(g137
g2
Ntp975
Rp976
(dp977
g11
I00
sg18
I01
sg31
F0.0
sg19
I00
sbsg19
I00
sg922
g0
(g137
g2
Ntp978
Rp979
(dp980
g11
I00
sg18
I01
sg31
F12.2999
sg19
I00
sbsg926
g0
(g137
g2
Ntp981
Rp982
(dp983
g11
I00
sg18
I01
sg31
F-2.19142
sg19
I00
sbsg930
g0
(g137
g2
Ntp984
Rp985
(dp986
g11
I00
sg18
I01
sg31
F0.0
sg19
I00
sbsg934
g0
(g137
g2
Ntp987
Rp988
(dp989
g11
I00
sg18
I01
sg31
F6.0
sg19
I00
sbsg938
g0
(g137
g2
Ntp990
Rp991
(dp992
g11
I00
sg18
I01
sg31
F0.0
sg19
I00
sbsg69
(lp993
g918
ag922
ag926
ag930
ag934
ag938
ag943
asg943
g0
(g137
g2
Ntp994
Rp995
(dp996
g11
I00
sg18
I01
sg31
F0.0
sg19
I00
sbsbag0
(g394
g2
Ntp997
Rp998
(dp999
g11
I00
sg18
I01
sg918
g0
(g137
g2
Ntp1000
Rp1001
(dp1002
g11
I00
sg18
I01
sg31
F0.0
sg19
I00
sbsg19
I00
sg922
g0
(g137
g2
Ntp1003
Rp1004
(dp1005
g11
I00
sg18
I01
sg31
F12.2999
sg19
I00
sbsg926
g0
(g137
g2
Ntp1006
Rp1007
(dp1008
g11
I00
sg18
I01
sg31
F-2.19142
sg19
I00
sbsg930
g0
(g137
g2
Ntp1009
Rp1010
(dp1011
g11
I00
sg18
I01
sg31
F0.0
sg19
I00
sbsg934
g0
(g137
g2
Ntp1012
Rp1013
(dp1014
g11
I00
sg18
I01
sg31
F6.0
sg19
I00
sbsg938
g0
(g137
g2
Ntp1015
Rp1016
(dp1017
g11
I00
sg18
I01
sg31
F0.0
sg19
I00
sbsg69
(lp1018
g918
ag922
ag926
ag930
ag934
ag938
ag943
asg943
g0
(g137
g2
Ntp1019
Rp1020
(dp1021
g11
I00
sg18
I01
sg31
F0.0
sg19
I00
sbsbatp1022
Rp1023
(dp1024
g11
I00
sg18
I01
sg19
I00
sg132
I1
sbsg913
g0
(g479
g106
(lp1025
g0
(g394
g2
Ntp1026
Rp1027
(dp1028
g11
I00
sg18
I01
sg19
I00
sS'slope'
p1029
g0
(g137
g2
Ntp1030
Rp1031
(dp1032
g11
I00
sg18
I01
sg31
F-3.178648
sg19
I00
sbsS'tmax'
p1033
g0
(g137
g2
Ntp1034
Rp1035
(dp1036
g11
I00
sg18
I01
sg31
F16.0
sg19
I00
sbsS'tzero'
p1037
g0
(g137
g2
Ntp1038
Rp1039
(dp1040
g11
I00
sg18
I01
sg31
F23.960177
sg19
I00
sbsg69
(lp1041
g1029
ag1033
ag1037
asbag0
(g394
g2
Ntp1042
Rp1043
(dp1044
g11
I00
sg18
I01
sg19
I00
sg1029
g0
(g137
g2
Ntp1045
Rp1046
(dp1047
g11
I00
sg18
I01
sg31
F-1.556668
sg19
I00
sbsg1033
g0
(g137
g2
Ntp1048
Rp1049
(dp1050
g11
I00
sg18
I01
sg31
F10.0
sg19
I00
sbsg1037
g0
(g137
g2
Ntp1051
Rp1052
(dp1053
g11
I00
sg18
I01
sg31
F13.307784
sg19
I00
sbsg69
(lp1054
g1029
ag1033
ag1037
asbag0
(g394
g2
Ntp1055
Rp1056
(dp1057
g11
I00
sg18
I01
sg19
I00
sg1029
g0
(g137
g2
Ntp1058
Rp1059
(dp1060
g11
I00
sg18
I01
sg31
F-1.075824
sg19
I00
sbsg1033
g0
(g137
g2
Ntp1061
Rp1062
(dp1063
g11
I00
sg18
I01
sg31
F6.25
sg19
I00
sbsg1037
g0
(g137
g2
Ntp1064
Rp1065
(dp1066
g11
I00
sg18
I01
sg31
F9.109694
sg19
I00
sbsg69
(lp1067
g1029
ag1033
ag1037
asbatp1068
Rp1069
(dp1070
g11
I00
sg18
I01
sg19
I00
sg132
I1
sbsg19
I00
sg12
I23
sg93
S'/cvmfs/cms.cern.ch/slc7_amd64_gcc700/cms/cmssw/CMSSW_10_2_3/python/CalibCalorimetry/HcalPlugins/HcalTimeSlew_cff.py'
p1071
sg382
g0
(g222
g2
Ntp1072
Rp1073
(dp1074
g11
I00
sg18
I01
sg31
S'HBHE'
p1075
sg19
I00
sbsg148
g907
sg156
g907
sbsS'CastorGeometryFromDBEP'
p1076
g0
(g182
g2
Ntp1077
Rp1078
(dp1079
g69
(lp1080
g413
asg11
I00
sg19
I00
sg12
I53
sg93
g188
sg148
g1076
sg413
g0
(g27
g2
Ntp1081
Rp1082
(dp1083
g11
I00
sg18
I01
sg31
I00
sg19
I00
sbsg156
g1076
sbsg393
g422
sS'HFRecalParameterBlock'
p1084
g0
(g394
g2
Ntp1085
Rp1086
(dp1087
g11
I00
sg18
I01
sg19
I00
sS'HFdepthTwoParameterA'
p1088
g0
(cFWCore.ParameterSet.Types
vdouble
p1089
g106
(lp1090
F0.002861
aF0.004168
aF0.0064
aF0.008388
aF0.011601
aF0.014425
aF0.018633
aF0.023232
aF0.028274
aF0.035447
aF0.051579
aF0.086593
atp1091
Rp1092
(dp1093
g11
I00
sg18
I01
sg19
I00
sbsS'HFdepthOneParameterA'
p1094
g0
(g1089
g106
(lp1095
F0.004123
aF0.00602
aF0.008201
aF0.010489
aF0.013379
aF0.016997
aF0.021464
aF0.027371
aF0.034195
aF0.044807
aF0.058939
aF0.125497
atp1096
Rp1097
(dp1098
g11
I00
sg18
I01
sg19
I00
sbsS'HFdepthOneParameterB'
p1099
g0
(g1089
g106
(lp1100
F-4e-06
aF-2e-06
aF0.0
aF4e-06
aF1.5e-05
aF2.6e-05
aF6.3e-05
aF8.4e-05
aF0.00016
aF0.000107
aF0.000425
aF0.000209
atp1101
Rp1102
(dp1103
g11
I00
sg18
I01
sg19
I00
sbsS'HFdepthTwoParameterB'
p1104
g0
(g1089
g106
(lp1105
F-2e-06
aF-0.0
aF-7e-06
aF-6e-06
aF-2e-06
aF1e-06
aF1.9e-05
aF3.1e-05
aF6.7e-05
aF1.2e-05
aF0.000157
aF-3e-06
atp1106
Rp1107
(dp1108
g11
I00
sg18
I01
sg19
I00
sbsg69
(lp1109
g1094
ag1099
ag1104
ag1088
asg148
g1084
sbsS'trackerGeometryDB'
p1110
g0
(g182
g2
Ntp1111
Rp1112
(dp1113
g69
(lp1114
g382
aS'fromDDD'
p1115
ag413
aS'alignmentsLabel'
p1116
asg11
I00
sg382
g0
(g222
g2
Ntp1117
Rp1118
(dp1119
g11
I00
sg18
I01
sg31
g25
sg19
I00
sbsg19
I00
sg1116
g0
(g222
g2
Ntp1120
Rp1121
(dp1122
g11
I00
sg18
I01
sg31
g25
sg19
I00
sbsg93
g188
sg12
I53
sg148
g1110
sg1115
g0
(g27
g2
Ntp1123
Rp1124
(dp1125
g11
I00
sg18
I01
sg31
I00
sg19
I00
sbsg413
g0
(g27
g2
Ntp1126
Rp1127
(dp1128
g11
I00
sg18
I01
sg31
I01
sg19
I00
sbsg156
S'TrackerDigiGeometryESModule'
p1129
sbsS'eegeom'
p1130
g0
(g510
g2
Ntp1131
Rp1132
(dp1133
g69
(lp1134
S'iovIsRunNotTime'
p1135
aS'recordName'
p1136
aS'firstValid'
p1137
asg11
I00
sg19
I00
sg12
I6
sg1136
g0
(g222
g2
Ntp1138
Rp1139
(dp1140
g11
I00
sg18
I01
sg31
S'EcalMappingRcd'
p1141
sg19
I00
sbsg93
S'/cvmfs/cms.cern.ch/slc7_amd64_gcc700/cms/cmssw/CMSSW_10_2_3/python/Geometry/EcalMapping/EcalMappingRecord_cfi.py'
p1142
sg1137
g0
(cFWCore.ParameterSet.Types
vuint32
p1143
g106
(lp1144
I1
atp1145
Rp1146
(dp1147
g11
I00
sg18
I01
sg19
I00
sbsg148
g1130
sg1135
g0
(g27
g2
Ntp1148
Rp1149
(dp1150
g11
I00
sg18
I01
sg31
I01
sg19
I00
sbsg156
S'EmptyESSource'
p1151
sbsS'_Process__vpsets'
p1152
(dp1153
sg202
g205
sS'EcalTrigTowerConstituentsMapBuilder'
p1154
g0
(g182
g2
Ntp1155
Rp1156
(dp1157
g69
(lp1158
S'MapFile'
p1159
asg11
I00
sg19
I00
sg1159
g0
(g222
g2
Ntp1160
Rp1161
(dp1162
g11
I00
sg18
I00
sg31
S'Geometry/EcalMapping/data/EndCap_TTMap.txt'
p1163
sg19
I00
sbsg93
g188
sg12
I53
sg148
g1154
sg156
g1154
sbsS'siStripBackPlaneCorrectionDepESProducer'
p1164
g0
(g182
g2
Ntp1165
Rp1166
(dp1167
g69
(lp1168
S'LatencyRecord'
p1169
aS'BackPlaneCorrectionDeconvMode'
p1170
aS'BackPlaneCorrectionPeakMode'
p1171
asg11
I00
sg19
I00
sg12
I53
sg93
g188
sg1169
g0
(g394
g2
Ntp1172
Rp1173
(dp1174
g11
I00
sg18
I01
sg19
I00
sg355
g0
(g222
g2
Ntp1175
Rp1176
(dp1177
g11
I00
sg18
I00
sg31
g25
sg19
I00
sbsg484
g0
(g222
g2
Ntp1178
Rp1179
(dp1180
g11
I00
sg18
I01
sg31
S'SiStripLatencyRcd'
p1181
sg19
I00
sbsg69
(lp1182
g484
ag355
asbsg1171
g0
(g394
g2
Ntp1183
Rp1184
(dp1185
g11
I00
sg18
I01
sg19
I00
sg355
g0
(g222
g2
Ntp1186
Rp1187
(dp1188
g11
I00
sg18
I00
sg31
S'peak'
p1189
sg19
I00
sbsg484
g0
(g222
g2
Ntp1190
Rp1191
(dp1192
g11
I00
sg18
I01
sg31
S'SiStripBackPlaneCorrectionRcd'
p1193
sg19
I00
sbsg69
(lp1194
g484
ag355
asbsg148
g1164
sg1170
g0
(g394
g2
Ntp1195
Rp1196
(dp1197
g11
I00
sg18
I01
sg19
I00
sg355
g0
(g222
g2
Ntp1198
Rp1199
(dp1200
g11
I00
sg18
I00
sg31
S'deconvolution'
p1201
sg19
I00
sbsg484
g0
(g222
g2
Ntp1202
Rp1203
(dp1204
g11
I00
sg18
I01
sg31
g1193
sg19
I00
sbsg69
(lp1205
g484
ag355
asbsg156
S'SiStripBackPlaneCorrectionDepESProducer'
p1206
sbsS'_Process__esprefers'
p1207
(dp1208
S'es_prefer_hcalHardcode'
p1209
g0
(cFWCore.ParameterSet.Modules
ESPrefer
p1210
g2
Ntp1211
Rp1212
(dp1213
g69
(lp1214
sg11
I00
sg19
I00
sS'_targetLabel'
p1215
S'es_hardcode'
p1216
sg12
I89
sg93
g188
sg148
g1209
sg156
S'HcalHardcodeCalibrations'
p1217
sbssS'_Process__isStrict'
p1218
I00
sS'HepPDTESSource'
p1219
g0
(g510
g2
Ntp1220
Rp1221
(dp1222
g69
(lp1223
S'pdtFileName'
p1224
asg11
I00
sg1224
g0
(cFWCore.ParameterSet.Types
FileInPath
p1225
g2
Ntp1226
Rp1227
(dp1228
g11
I00
sg18
I01
sg31
S'SimGeneral/HepPDTESSource/data/pythiaparticle.tbl'
p1229
sg19
I00
sbsg19
I00
sg12
I4
sg93
S'/cvmfs/cms.cern.ch/slc7_amd64_gcc700/cms/cmssw/CMSSW_10_2_3/python/SimGeneral/HepPDTESSource/pythiapdt_cfi.py'
p1230
sg148
g1219
sg156
g1219
sbsS'_Process__outputmodules'
p1231
(dp1232
sS'_Process__analyzers'
p1233
(dp1234
g6
g9
sg616
g604
ssS'idealForDigiTrackerGeometry'
p1235
g0
(g182
g2
Ntp1236
Rp1237
(dp1238
g69
(lp1239
g382
ag1115
ag413
ag1116
asg11
I00
sg382
g0
(g222
g2
Ntp1240
Rp1241
(dp1242
g11
I00
sg18
I01
sg31
S'idealForDigi'
p1243
sg19
I01
sbsg19
I01
sg1116
g0
(g222
g2
Ntp1244
Rp1245
(dp1246
g11
I00
sg18
I01
sg31
S'fakeForIdeal'
p1247
sg19
I01
sbsg93
S'/cvmfs/cms.cern.ch/slc7_amd64_gcc700/cms/cmssw/CMSSW_10_2_3/python/Geometry/TrackerGeometryBuilder/idealForDigiTrackerGeometryDB_cff.py'
p1248
sg12
I8
sg148
g1235
sg1115
g0
(g27
g2
Ntp1249
Rp1250
(dp1251
g11
I00
sg18
I01
sg31
I00
sg19
I00
sbsg413
g0
(g27
g2
Ntp1252
Rp1253
(dp1254
g11
I00
sg18
I01
sg31
I00
sg19
I01
sbsg156
g1129
sbsS'_Process__looper'
p1255
NsS'_Process__tasks'
p1256
(dp1257
sS'_Process__paths'
p1258
g0
(g586
g587
(dp1259
g594
g597
stp1260
Rp1261
(dp1262
g592
(lp1263
g594
asbsg233
g216
sS'MuonNumberingInitialization'
p1264
g0
(g182
g2
Ntp1265
Rp1266
(dp1267
g69
(lp1268
sg11
I00
sg19
I00
sg12
I53
sg93
g188
sg148
g1264
sg156
g1264
sbsS'options'
p1269
g0
(g394
g2
Ntp1270
Rp1271
(dp1272
g11
I00
sg18
I00
sg19
I00
sS'wantSummary'
p1273
g0
(g27
g2
Ntp1274
Rp1275
(dp1276
g11
I00
sg18
I00
sg31
I00
sg19
I00
sbsg69
(lp1277
g1273
aS'allowUnscheduled'
p1278
asg148
g1269
sg1278
g0
(g27
g2
Ntp1279
Rp1280
(dp1281
g11
I00
sg18
I00
sg31
I01
sg19
I00
sbsbsS'DTGeometryESModule'
p1282
g0
(g182
g2
Ntp1283
Rp1284
(dp1285
g69
(lp1286
g382
ag1115
ag413
ag1116
asg11
I00
sg382
g0
(g222
g2
Ntp1287
Rp1288
(dp1289
g11
I00
sg18
I01
sg31
g25
sg19
I00
sbsg19
I00
sg1116
g0
(g222
g2
Ntp1290
Rp1291
(dp1292
g11
I00
sg18
I01
sg31
g25
sg19
I00
sbsg93
g188
sg12
I53
sg148
g1282
sg1115
g0
(g27
g2
Ntp1293
Rp1294
(dp1295
g11
I00
sg18
I01
sg31
I00
sg19
I00
sbsg413
g0
(g27
g2
Ntp1296
Rp1297
(dp1298
g11
I00
sg18
I01
sg31
I01
sg19
I00
sbsg156
g1282
sbsS'VolumeBasedMagneticFieldESProducer'
p1299
g0
(g182
g2
Ntp1300
Rp1301
(dp1302
g69
(lp1303
S'valueOverride'
p1304
aS'debugBuilder'
p1305
ag355
asg11
I00
sg1304
g0
(g267
g2
Ntp1306
Rp1307
(dp1308
g11
I00
sg18
I01
sg31
I-1
sg19
I00
sbsg12
I53
sg93
g188
sg355
g0
(g222
g2
Ntp1309
Rp1310
(dp1311
g11
I00
sg18
I00
sg31
g25
sg19
I00
sbsg1305
g0
(g27
g2
Ntp1312
Rp1313
(dp1314
g11
I00
sg18
I00
sg31
I00
sg19
I00
sbsg148
g1299
sg156
S'VolumeBasedMagneticFieldESProducerFromDB'
p1315
sg19
I00
sbsS'CaloTopologyBuilder'
p1316
g0
(g182
g2
Ntp1317
Rp1318
(dp1319
g69
(lp1320
sg11
I00
sg19
I00
sg12
I53
sg93
g188
sg148
g1316
sg156
g1316
sbsS'SiStripRecHitMatcherESProducer'
p1321
g0
(g182
g2
Ntp1322
Rp1323
(dp1324
g69
(lp1325
S'PreFilter'
p1326
aS'ComponentName'
p1327
aS'NSigmaInside'
p1328
asg11
I00
sg19
I00
sg93
g188
sg1327
g0
(g222
g2
Ntp1329
Rp1330
(dp1331
g11
I00
sg18
I01
sg31
S'StandardMatcher'
p1332
sg19
I00
sbsg1326
g0
(g27
g2
Ntp1333
Rp1334
(dp1335
g11
I00
sg18
I01
sg31
I00
sg19
I00
sbsg12
I53
sg1328
g0
(g137
g2
Ntp1336
Rp1337
(dp1338
g11
I00
sg18
I01
sg31
F3.0
sg19
I00
sbsg148
g1321
sg156
g1321
sbsS'_Process__psets'
p1339
(dp1340
S'maxEvents'
p1341
g0
(g394
g2
Ntp1342
Rp1343
(dp1344
g11
I00
sg18
I00
sg19
I00
sg69
(lp1345
S'input'
p1346
asg148
g1341
sg1346
g0
(g267
g2
Ntp1347
Rp1348
(dp1349
g11
I00
sg18
I00
sg31
I-1
sg19
I00
sbsbsg1084
g1086
sg1269
g1271
ssS'_Process__essources'
p1350
(dp1351
g1219
g1221
sg1130
g1132
sg1216
g0
(g510
g2
Ntp1352
Rp1353
(dp1354
g11
I00
sg12
I172
sS'useHEUpgrade'
p1355
g0
(g27
g2
Ntp1356
Rp1357
(dp1358
g11
I00
sg18
I01
sg31
I00
sg19
I00
sbsS'HBRecalibration'
p1359
g0
(g27
g2
Ntp1360
Rp1361
(dp1362
g11
I00
sg18
I01
sg31
I00
sg19
I00
sbsS'useLayer0Weight'
p1363
g0
(g27
g2
Ntp1364
Rp1365
(dp1366
g11
I00
sg18
I01
sg31
I00
sg19
I00
sbsS'HEmeanenergies'
p1367
g0
(g1225
g2
Ntp1368
Rp1369
(dp1370
g11
I00
sg18
I01
sg31
S'CalibCalorimetry/HcalPlugins/data/meanenergiesHE.txt'
p1371
sg19
I00
sbsg1084
g1086
sS'heUpgrade'
p1372
g0
(g394
g2
Ntp1373
Rp1374
(dp1375
g11
I00
sg18
I01
sS'qieType'
p1376
g0
(g267
g2
Ntp1377
Rp1378
(dp1379
g11
I00
sg18
I01
sg31
I2
sg19
I00
sbsg19
I00
sS'pedestalWidth'
p1380
g0
(g137
g2
Ntp1381
Rp1382
(dp1383
g11
I00
sg18
I01
sg31
F1.5
sg19
I00
sbsS'recoShape'
p1384
g0
(g267
g2
Ntp1385
Rp1386
(dp1387
g11
I00
sg18
I01
sg31
I206
sg19
I00
sbsS'zsThreshold'
p1388
g0
(g267
g2
Ntp1389
Rp1390
(dp1391
g11
I00
sg18
I01
sg31
I16
sg19
I00
sbsS'darkCurrent'
p1392
g0
(g1089
g106
(lp1393
F0.01
aF0.015
atp1394
Rp1395
(dp1396
g11
I00
sg18
I01
sg19
I00
sbsS'qieOffset'
p1397
g0
(g1089
g106
(lp1398
F0.0
aF0.0
aF0.0
aF0.0
atp1399
Rp1400
(dp1401
g11
I00
sg18
I01
sg19
I00
sbsS'qieSlope'
p1402
g0
(g1089
g106
(lp1403
F0.05376
aF0.05376
aF0.05376
aF0.05376
atp1404
Rp1405
(dp1406
g11
I00
sg18
I01
sg19
I00
sbsS'radiationDamage'
p1407
g0
(g394
g2
Ntp1408
Rp1409
(dp1410
g11
I00
sg18
I01
sS'temperatureNew'
p1411
g0
(g137
g2
Ntp1412
Rp1413
(dp1414
g11
I00
sg18
I01
sg31
I5
sg19
I00
sbsg19
I00
sS'depVsNeutrons'
p1415
g0
(g1089
g106
(lp1416
F5.543e-10
aF8.012e-10
atp1417
Rp1418
(dp1419
g11
I00
sg18
I01
sg19
I00
sbsS'temperatureBase'
p1420
g0
(g137
g2
Ntp1421
Rp1422
(dp1423
g11
I00
sg18
I01
sg31
I20
sg19
I00
sbsS'depVsTemp'
p1424
g0
(g137
g2
Ntp1425
Rp1426
(dp1427
g11
I00
sg18
I01
sg31
F0.0631
sg19
I00
sbsS'intlumiOffset'
p1428
g0
(g137
g2
Ntp1429
Rp1430
(dp1431
g11
I00
sg18
I01
sg31
I75
sg19
I00
sbsg69
(lp1432
g1411
ag1415
ag1420
ag1424
ag1428
aS'intlumiToNeutrons'
p1433
asg1433
g0
(g137
g2
Ntp1434
Rp1435
(dp1436
g11
I00
sg18
I01
sg31
F29200000.0
sg19
I00
sbsbsS'doRadiationDamage'
p1437
g0
(g27
g2
Ntp1438
Rp1439
(dp1440
g11
I00
sg18
I01
sg31
I01
sg19
I00
sbsg69
(lp1441
g1376
ag1380
ag1384
ag1388
aS'photoelectronsToAnalog'
p1442
ag1397
ag1402
ag1407
ag1437
ag1392
aS'pedestal'
p1443
aS'mcShape'
p1444
aS'gainWidth'
p1445
aS'gain'
p1446
asg1442
g0
(g137
g2
Ntp1447
Rp1448
(dp1449
g11
I00
sg18
I01
sg31
F40.0
sg19
I00
sbsg1443
g0
(g137
g2
Ntp1450
Rp1451
(dp1452
g11
I00
sg18
I01
sg31
F17.3
sg19
I00
sbsg1444
g0
(g267
g2
Ntp1453
Rp1454
(dp1455
g11
I00
sg18
I01
sg31
I206
sg19
I00
sbsg1445
g0
(g1089
g106
(lp1456
I0
atp1457
Rp1458
(dp1459
g11
I00
sg18
I01
sg19
I00
sbsg1446
g0
(g1089
g106
(lp1460
F0.0006252
atp1461
Rp1462
(dp1463
g11
I00
sg18
I01
sg19
I00
sbsbsg69
(lp1464
g521
ag1359
ag1363
ag1367
ag1084
ag1372
aS'useIeta18depth1'
p1465
aS'killHE'
p1466
aS'useHBUpgrade'
p1467
aS'hbUpgrade'
p1468
aS'testHEPlan1'
p1469
aS'iLumi'
p1470
aS'testHFQIE10'
p1471
aS'HBmeanenergies'
p1472
ag1355
aS'GainWidthsForTrigPrims'
p1473
aS'HBreCalibCutoff'
p1474
aS'HFRecalibration'
p1475
aS'ho'
p1476
aS'hb'
p1477
aS'hf'
p1478
aS'he'
p1479
aS'HERecalibration'
p1480
aS'useHFUpgrade'
p1481
aS'HEreCalibCutoff'
p1482
aS'SiPMCharacteristics'
p1483
aS'useHOUpgrade'
p1484
aS'hfUpgrade'
p1485
asg93
S'/cvmfs/cms.cern.ch/slc7_amd64_gcc700/cms/cmssw/CMSSW_10_2_3/python/CalibCalorimetry/HcalPlugins/Hcal_Conditions_forGlobalTag_cff.py'
p1486
sg1465
g0
(g27
g2
Ntp1487
Rp1488
(dp1489
g11
I00
sg18
I01
sg31
I01
sg19
I00
sbsg1466
g0
(g27
g2
Ntp1490
Rp1491
(dp1492
g11
I00
sg18
I01
sg31
I00
sg19
I00
sbsg1467
g0
(g27
g2
Ntp1493
Rp1494
(dp1495
g11
I00
sg18
I01
sg31
I00
sg19
I00
sbsg1468
g0
(g394
g2
Ntp1496
Rp1497
(dp1498
g11
I00
sg18
I01
sg1376
g0
(g267
g2
Ntp1499
Rp1500
(dp1501
g11
I00
sg18
I01
sg31
I2
sg19
I00
sbsg19
I00
sg1380
g0
(g137
g2
Ntp1502
Rp1503
(dp1504
g11
I00
sg18
I01
sg31
F1.5
sg19
I00
sbsg1384
g0
(g267
g2
Ntp1505
Rp1506
(dp1507
g11
I00
sg18
I01
sg31
I206
sg19
I00
sbsg1388
g0
(g267
g2
Ntp1508
Rp1509
(dp1510
g11
I00
sg18
I01
sg31
I16
sg19
I00
sbsg1392
g0
(g1089
g106
(lp1511
F0.01
aF0.015
atp1512
Rp1513
(dp1514
g11
I00
sg18
I01
sg19
I00
sbsg1397
g0
(g1089
g106
(lp1515
F0.0
aF0.0
aF0.0
aF0.0
atp1516
Rp1517
(dp1518
g11
I00
sg18
I01
sg19
I00
sbsg1402
g0
(g1089
g106
(lp1519
F0.05376
aF0.05376
aF0.05376
aF0.05376
atp1520
Rp1521
(dp1522
g11
I00
sg18
I01
sg19
I00
sbsg1407
g0
(g394
g2
Ntp1523
Rp1524
(dp1525
g11
I00
sg18
I01
sg1411
g0
(g137
g2
Ntp1526
Rp1527
(dp1528
g11
I00
sg18
I01
sg31
I-5
sg19
I00
sbsg19
I00
sg1415
g0
(g1089
g106
(lp1529
F5.543e-10
aF8.012e-10
atp1530
Rp1531
(dp1532
g11
I00
sg18
I01
sg19
I00
sbsg1420
g0
(g137
g2
Ntp1533
Rp1534
(dp1535
g11
I00
sg18
I01
sg31
I20
sg19
I00
sbsg1424
g0
(g137
g2
Ntp1536
Rp1537
(dp1538
g11
I00
sg18
I01
sg31
F0.0631
sg19
I00
sbsg1428
g0
(g137
g2
Ntp1539
Rp1540
(dp1541
g11
I00
sg18
I01
sg31
I150
sg19
I00
sbsg69
(lp1542
g1411
ag1415
ag1420
ag1424
ag1428
ag1433
asg1433
g0
(g137
g2
Ntp1543
Rp1544
(dp1545
g11
I00
sg18
I01
sg31
F367000000.0
sg19
I00
sbsbsg1437
g0
(g27
g2
Ntp1546
Rp1547
(dp1548
g11
I00
sg18
I01
sg31
I01
sg19
I00
sbsg69
(lp1549
g1376
ag1380
ag1384
ag1388
ag1442
ag1397
ag1402
ag1407
ag1437
ag1392
ag1443
ag1444
ag1445
ag1446
asg1442
g0
(g137
g2
Ntp1550
Rp1551
(dp1552
g11
I00
sg18
I01
sg31
F40.0
sg19
I00
sbsg1443
g0
(g137
g2
Ntp1553
Rp1554
(dp1555
g11
I00
sg18
I01
sg31
F17.3
sg19
I00
sbsg1444
g0
(g267
g2
Ntp1556
Rp1557
(dp1558
g11
I00
sg18
I01
sg31
I206
sg19
I00
sbsg1445
g0
(g1089
g106
(lp1559
I0
atp1560
Rp1561
(dp1562
g11
I00
sg18
I01
sg19
I00
sbsg1446
g0
(g1089
g106
(lp1563
F0.0006252
atp1564
Rp1565
(dp1566
g11
I00
sg18
I01
sg19
I00
sbsbsg156
g1217
sg1469
g0
(g27
g2
Ntp1567
Rp1568
(dp1569
g11
I00
sg18
I01
sg31
I00
sg19
I00
sbsg1470
g0
(g137
g2
Ntp1570
Rp1571
(dp1572
g11
I00
sg18
I01
sg31
F-1.0
sg19
I00
sbsg1471
g0
(g27
g2
Ntp1573
Rp1574
(dp1575
g11
I00
sg18
I01
sg31
I00
sg19
I00
sbsg1472
g0
(g1225
g2
Ntp1576
Rp1577
(dp1578
g11
I00
sg18
I01
sg31
S'CalibCalorimetry/HcalPlugins/data/meanenergiesHB.txt'
p1579
sg19
I00
sbsg521
g0
(g105
g106
(lp1580
S'GainWidths'
p1581
atp1582
Rp1583
(dp1584
g11
I00
sg18
I00
sg19
I00
sg132
I1
sbsg1473
g0
(g27
g2
Ntp1585
Rp1586
(dp1587
g11
I00
sg18
I01
sg31
I00
sg19
I00
sbsg1474
g0
(g137
g2
Ntp1588
Rp1589
(dp1590
g11
I00
sg18
I01
sg31
F20.0
sg19
I00
sbsg1475
g0
(g27
g2
Ntp1591
Rp1592
(dp1593
g11
I00
sg18
I01
sg31
I00
sg19
I00
sbsg1476
g0
(g394
g2
Ntp1594
Rp1595
(dp1596
g11
I00
sg18
I01
sg1376
g0
(g267
g2
Ntp1597
Rp1598
(dp1599
g11
I00
sg18
I01
sg31
I0
sg19
I00
sbsg19
I00
sg1380
g0
(g137
g2
Ntp1600
Rp1601
(dp1602
g11
I00
sg18
I01
sg31
F0.6285
sg19
I00
sbsg1384
g0
(g267
g2
Ntp1603
Rp1604
(dp1605
g11
I00
sg18
I01
sg31
I201
sg19
I00
sbsg1388
g0
(g267
g2
Ntp1606
Rp1607
(dp1608
g11
I00
sg18
I01
sg31
I24
sg19
I00
sbsg1392
g0
(g1089
g106
(lp1609
F0.0
atp1610
Rp1611
(dp1612
g11
I00
sg18
I01
sg19
I00
sbsg1397
g0
(g1089
g106
(lp1613
F-0.44
aF1.4
aF7.1
aF38.5
atp1614
Rp1615
(dp1616
g11
I00
sg18
I01
sg19
I00
sbsg1402
g0
(g1089
g106
(lp1617
F0.907
aF0.915
aF0.92
aF0.921
atp1618
Rp1619
(dp1620
g11
I00
sg18
I01
sg19
I00
sbsg1446
g0
(g1089
g106
(lp1621
F0.006
aF0.0087
atp1622
Rp1623
(dp1624
g11
I00
sg18
I01
sg19
I00
sbsg1437
g0
(g27
g2
Ntp1625
Rp1626
(dp1627
g11
I00
sg18
I01
sg31
I00
sg19
I00
sbsg69
(lp1628
g1376
ag1380
ag1384
ag1388
ag1442
ag1397
ag1402
ag1446
ag1437
ag1392
ag1443
ag1444
ag1445
asg1442
g0
(g137
g2
Ntp1629
Rp1630
(dp1631
g11
I00
sg18
I01
sg31
F4.0
sg19
I00
sbsg1443
g0
(g137
g2
Ntp1632
Rp1633
(dp1634
g11
I00
sg18
I01
sg31
F12.06
sg19
I00
sbsg1444
g0
(g267
g2
Ntp1635
Rp1636
(dp1637
g11
I00
sg18
I01
sg31
I201
sg19
I00
sbsg1445
g0
(g1089
g106
(lp1638
F0.0
aF0.0
atp1639
Rp1640
(dp1641
g11
I00
sg18
I01
sg19
I00
sbsbsg1477
g0
(g394
g2
Ntp1642
Rp1643
(dp1644
g11
I00
sg18
I01
sg1376
g0
(g267
g2
Ntp1645
Rp1646
(dp1647
g11
I00
sg18
I01
sg31
I0
sg19
I00
sbsg19
I00
sg1380
g0
(g137
g2
Ntp1648
Rp1649
(dp1650
g11
I00
sg18
I01
sg31
F0.809
sg19
I00
sbsg1384
g0
(g267
g2
Ntp1651
Rp1652
(dp1653
g11
I00
sg18
I01
sg31
I105
sg19
I00
sbsg1388
g0
(g267
g2
Ntp1654
Rp1655
(dp1656
g11
I00
sg18
I01
sg31
I8
sg19
I00
sbsg1392
g0
(g1089
g106
(lp1657
F0.0
atp1658
Rp1659
(dp1660
g11
I00
sg18
I01
sg19
I00
sbsg1397
g0
(g1089
g106
(lp1661
F-0.49
aF1.8
aF7.2
aF37.9
atp1662
Rp1663
(dp1664
g11
I00
sg18
I01
sg19
I00
sbsg1402
g0
(g1089
g106
(lp1665
F0.912
aF0.917
aF0.922
aF0.923
atp1666
Rp1667
(dp1668
g11
I00
sg18
I01
sg19
I00
sbsg1446
g0
(g1089
g106
(lp1669
F0.19
atp1670
Rp1671
(dp1672
g11
I00
sg18
I01
sg19
I00
sbsg1437
g0
(g27
g2
Ntp1673
Rp1674
(dp1675
g11
I00
sg18
I01
sg31
I00
sg19
I00
sbsg69
(lp1676
g1376
ag1380
ag1384
ag1388
ag1442
ag1397
ag1402
ag1446
ag1437
ag1392
ag1443
ag1444
ag1445
asg1442
g0
(g137
g2
Ntp1677
Rp1678
(dp1679
g11
I00
sg18
I01
sg31
F0.3305
sg19
I00
sbsg1443
g0
(g137
g2
Ntp1680
Rp1681
(dp1682
g11
I00
sg18
I01
sg31
F3.285
sg19
I00
sbsg1444
g0
(g267
g2
Ntp1683
Rp1684
(dp1685
g11
I00
sg18
I01
sg31
I125
sg19
I00
sbsg1445
g0
(g1089
g106
(lp1686
F0.0
atp1687
Rp1688
(dp1689
g11
I00
sg18
I01
sg19
I00
sbsbsg1478
g0
(g394
g2
Ntp1690
Rp1691
(dp1692
g11
I00
sg18
I01
sg1376
g0
(g267
g2
Ntp1693
Rp1694
(dp1695
g11
I00
sg18
I01
sg31
I0
sg19
I00
sbsg19
I00
sg1380
g0
(g137
g2
Ntp1696
Rp1697
(dp1698
g11
I00
sg18
I01
sg31
F2.516
sg19
I00
sbsg1384
g0
(g267
g2
Ntp1699
Rp1700
(dp1701
g11
I00
sg18
I01
sg31
I301
sg19
I00
sbsg1388
g0
(g267
g2
Ntp1702
Rp1703
(dp1704
g11
I00
sg18
I01
sg31
I-9999
sg19
I00
sbsg1392
g0
(g1089
g106
(lp1705
F0.0
atp1706
Rp1707
(dp1708
g11
I00
sg18
I01
sg19
I00
sbsg1397
g0
(g1089
g106
(lp1709
F-0.87
aF1.4
aF7.8
aF-29.6
atp1710
Rp1711
(dp1712
g11
I00
sg18
I01
sg19
I00
sbsg1402
g0
(g1089
g106
(lp1713
F0.359
aF0.358
aF0.36
aF0.367
atp1714
Rp1715
(dp1716
g11
I00
sg18
I01
sg19
I00
sbsg1446
g0
(g1089
g106
(lp1717
F0.14
aF0.135
atp1718
Rp1719
(dp1720
g11
I00
sg18
I01
sg19
I00
sbsg1437
g0
(g27
g2
Ntp1721
Rp1722
(dp1723
g11
I00
sg18
I01
sg31
I00
sg19
I00
sbsg69
(lp1724
g1376
ag1380
ag1384
ag1388
ag1442
ag1397
ag1402
ag1446
ag1437
ag1392
ag1443
ag1444
ag1445
asg1442
g0
(g137
g2
Ntp1725
Rp1726
(dp1727
g11
I00
sg18
I01
sg31
F0.0
sg19
I00
sbsg1443
g0
(g137
g2
Ntp1728
Rp1729
(dp1730
g11
I00
sg18
I01
sg31
F9.354
sg19
I00
sbsg1444
g0
(g267
g2
Ntp1731
Rp1732
(dp1733
g11
I00
sg18
I01
sg31
I301
sg19
I00
sbsg1445
g0
(g1089
g106
(lp1734
F0.0
aF0.0
atp1735
Rp1736
(dp1737
g11
I00
sg18
I01
sg19
I00
sbsbsg1479
g0
(g394
g2
Ntp1738
Rp1739
(dp1740
g11
I00
sg18
I01
sg1376
g0
(g267
g2
Ntp1741
Rp1742
(dp1743
g11
I00
sg18
I01
sg31
I0
sg19
I00
sbsg19
I00
sg1380
g0
(g137
g2
Ntp1744
Rp1745
(dp1746
g11
I00
sg18
I01
sg31
F0.9698
sg19
I00
sbsg1384
g0
(g267
g2
Ntp1747
Rp1748
(dp1749
g11
I00
sg18
I01
sg31
I105
sg19
I00
sbsg1388
g0
(g267
g2
Ntp1750
Rp1751
(dp1752
g11
I00
sg18
I01
sg31
I9
sg19
I00
sbsg1392
g0
(g1089
g106
(lp1753
F0.0
atp1754
Rp1755
(dp1756
g11
I00
sg18
I01
sg19
I00
sbsg1397
g0
(g1089
g106
(lp1757
F-0.38
aF2.0
aF7.6
aF39.6
atp1758
Rp1759
(dp1760
g11
I00
sg18
I01
sg19
I00
sbsg1402
g0
(g1089
g106
(lp1761
F0.912
aF0.916
aF0.92
aF0.922
atp1762
Rp1763
(dp1764
g11
I00
sg18
I01
sg19
I00
sbsg1446
g0
(g1089
g106
(lp1765
F0.23
atp1766
Rp1767
(dp1768
g11
I00
sg18
I01
sg19
I00
sbsg1437
g0
(g27
g2
Ntp1769
Rp1770
(dp1771
g11
I00
sg18
I01
sg31
I00
sg19
I00
sbsg69
(lp1772
g1376
ag1380
ag1384
ag1388
ag1442
ag1397
ag1402
ag1446
ag1437
ag1392
ag1443
ag1444
ag1445
asg1442
g0
(g137
g2
Ntp1773
Rp1774
(dp1775
g11
I00
sg18
I01
sg31
F0.3305
sg19
I00
sbsg1443
g0
(g137
g2
Ntp1776
Rp1777
(dp1778
g11
I00
sg18
I01
sg31
F3.163
sg19
I00
sbsg1444
g0
(g267
g2
Ntp1779
Rp1780
(dp1781
g11
I00
sg18
I01
sg31
I125
sg19
I00
sbsg1445
g0
(g1089
g106
(lp1782
I0
atp1783
Rp1784
(dp1785
g11
I00
sg18
I01
sg19
I00
sbsbsg19
I00
sg1480
g0
(g27
g2
Ntp1786
Rp1787
(dp1788
g11
I00
sg18
I01
sg31
I00
sg19
I00
sbsg1481
g0
(g27
g2
Ntp1789
Rp1790
(dp1791
g11
I00
sg18
I01
sg31
I00
sg19
I00
sbsg1482
g0
(g137
g2
Ntp1792
Rp1793
(dp1794
g11
I00
sg18
I01
sg31
F20.0
sg19
I00
sbsg1483
g0
(g479
g106
(lp1795
g0
(g394
g2
Ntp1796
Rp1797
(dp1798
g11
I00
sg18
I01
sg19
I00
sS'crosstalk'
p1799
g0
(g137
g2
Ntp1800
Rp1801
(dp1802
g11
I00
sg18
I01
sg31
F0.0
sg19
I00
sbsS'nonlin1'
p1803
g0
(g137
g2
Ntp1804
Rp1805
(dp1806
g11
I00
sg18
I01
sg31
F1.0
sg19
I00
sbsS'nonlin3'
p1807
g0
(g137
g2
Ntp1808
Rp1809
(dp1810
g11
I00
sg18
I01
sg31
F0.0
sg19
I00
sbsS'nonlin2'
p1811
g0
(g137
g2
Ntp1812
Rp1813
(dp1814
g11
I00
sg18
I01
sg31
F0.0
sg19
I00
sbsg69
(lp1815
g1803
ag1807
ag1811
aS'pixels'
p1816
ag1799
asg1816
g0
(g267
g2
Ntp1817
Rp1818
(dp1819
g11
I00
sg18
I01
sg31
I36000
sg19
I00
sbsbag0
(g394
g2
Ntp1820
Rp1821
(dp1822
g11
I00
sg18
I01
sg19
I00
sg1799
g0
(g137
g2
Ntp1823
Rp1824
(dp1825
g11
I00
sg18
I01
sg31
F0.0
sg19
I00
sbsg1803
g0
(g137
g2
Ntp1826
Rp1827
(dp1828
g11
I00
sg18
I01
sg31
F1.0
sg19
I00
sbsg1807
g0
(g137
g2
Ntp1829
Rp1830
(dp1831
g11
I00
sg18
I01
sg31
F0.0
sg19
I00
sbsg1811
g0
(g137
g2
Ntp1832
Rp1833
(dp1834
g11
I00
sg18
I01
sg31
F0.0
sg19
I00
sbsg69
(lp1835
g1803
ag1807
ag1811
ag1816
ag1799
asg1816
g0
(g267
g2
Ntp1836
Rp1837
(dp1838
g11
I00
sg18
I01
sg31
I2500
sg19
I00
sbsbag0
(g394
g2
Ntp1839
Rp1840
(dp1841
g11
I00
sg18
I01
sg19
I00
sg1799
g0
(g137
g2
Ntp1842
Rp1843
(dp1844
g11
I00
sg18
I01
sg31
F0.17
sg19
I00
sbsg1803
g0
(g137
g2
Ntp1845
Rp1846
(dp1847
g11
I00
sg18
I01
sg31
F1.00985
sg19
I00
sbsg1807
g0
(g137
g2
Ntp1848
Rp1849
(dp1850
g11
I00
sg18
I01
sg31
F2.86282e-10
sg19
I00
sbsg1811
g0
(g137
g2
Ntp1851
Rp1852
(dp1853
g11
I00
sg18
I01
sg31
F7.84089e-06
sg19
I00
sbsg69
(lp1854
g1803
ag1807
ag1811
ag1816
ag1799
asg1816
g0
(g267
g2
Ntp1855
Rp1856
(dp1857
g11
I00
sg18
I01
sg31
I27370
sg19
I00
sbsbag0
(g394
g2
Ntp1858
Rp1859
(dp1860
g11
I00
sg18
I01
sg19
I00
sg1799
g0
(g137
g2
Ntp1861
Rp1862
(dp1863
g11
I00
sg18
I01
sg31
F0.196
sg19
I00
sbsg1803
g0
(g137
g2
Ntp1864
Rp1865
(dp1866
g11
I00
sg18
I01
sg31
F1.00546
sg19
I00
sbsg1807
g0
(g137
g2
Ntp1867
Rp1868
(dp1869
g11
I00
sg18
I01
sg31
F1.27011e-10
sg19
I00
sbsg1811
g0
(g137
g2
Ntp1870
Rp1871
(dp1872
g11
I00
sg18
I01
sg31
F6.40239e-06
sg19
I00
sbsg69
(lp1873
g1803
ag1807
ag1811
ag1816
ag1799
asg1816
g0
(g267
g2
Ntp1874
Rp1875
(dp1876
g11
I00
sg18
I01
sg31
I38018
sg19
I00
sbsbag0
(g394
g2
Ntp1877
Rp1878
(dp1879
g11
I00
sg18
I01
sg19
I00
sg1799
g0
(g137
g2
Ntp1880
Rp1881
(dp1882
g11
I00
sg18
I01
sg31
F0.17
sg19
I00
sbsg1803
g0
(g137
g2
Ntp1883
Rp1884
(dp1885
g11
I00
sg18
I01
sg31
F1.00985
sg19
I00
sbsg1807
g0
(g137
g2
Ntp1886
Rp1887
(dp1888
g11
I00
sg18
I01
sg31
F2.86282e-10
sg19
I00
sbsg1811
g0
(g137
g2
Ntp1889
Rp1890
(dp1891
g11
I00
sg18
I01
sg31
F7.84089e-06
sg19
I00
sbsg69
(lp1892
g1803
ag1807
ag1811
ag1816
ag1799
asg1816
g0
(g267
g2
Ntp1893
Rp1894
(dp1895
g11
I00
sg18
I01
sg31
I27370
sg19
I00
sbsbag0
(g394
g2
Ntp1896
Rp1897
(dp1898
g11
I00
sg18
I01
sg19
I00
sg1799
g0
(g137
g2
Ntp1899
Rp1900
(dp1901
g11
I00
sg18
I01
sg31
F0.196
sg19
I00
sbsg1803
g0
(g137
g2
Ntp1902
Rp1903
(dp1904
g11
I00
sg18
I01
sg31
F1.00546
sg19
I00
sbsg1807
g0
(g137
g2
Ntp1905
Rp1906
(dp1907
g11
I00
sg18
I01
sg31
F1.27011e-10
sg19
I00
sbsg1811
g0
(g137
g2
Ntp1908
Rp1909
(dp1910
g11
I00
sg18
I01
sg31
F6.40239e-06
sg19
I00
sbsg69
(lp1911
g1803
ag1807
ag1811
ag1816
ag1799
asg1816
g0
(g267
g2
Ntp1912
Rp1913
(dp1914
g11
I00
sg18
I01
sg31
I38018
sg19
I00
sbsbag0
(g394
g2
Ntp1915
Rp1916
(dp1917
g11
I00
sg18
I01
sg19
I00
sg1799
g0
(g137
g2
Ntp1918
Rp1919
(dp1920
g11
I00
sg18
I01
sg31
F0.0
sg19
I00
sbsg1803
g0
(g137
g2
Ntp1921
Rp1922
(dp1923
g11
I00
sg18
I01
sg31
F1.0
sg19
I00
sbsg1807
g0
(g137
g2
Ntp1924
Rp1925
(dp1926
g11
I00
sg18
I01
sg31
F0.0
sg19
I00
sbsg1811
g0
(g137
g2
Ntp1927
Rp1928
(dp1929
g11
I00
sg18
I01
sg31
F0.0
sg19
I00
sbsg69
(lp1930
g1803
ag1807
ag1811
ag1816
ag1799
asg1816
g0
(g267
g2
Ntp1931
Rp1932
(dp1933
g11
I00
sg18
I01
sg31
I0
sg19
I00
sbsbatp1934
Rp1935
(dp1936
g11
I00
sg18
I01
sg19
I00
sg132
I1
sbsg148
g1216
sg1484
g0
(g27
g2
Ntp1937
Rp1938
(dp1939
g11
I00
sg18
I01
sg31
I01
sg19
I00
sbsg1485
g0
(g394
g2
Ntp1940
Rp1941
(dp1942
g11
I00
sg18
I01
sg1376
g0
(g267
g2
Ntp1943
Rp1944
(dp1945
g11
I00
sg18
I01
sg31
I1
sg19
I00
sbsg19
I00
sg1380
g0
(g137
g2
Ntp1946
Rp1947
(dp1948
g11
I00
sg18
I01
sg31
F3.33
sg19
I00
sbsg1384
g0
(g267
g2
Ntp1949
Rp1950
(dp1951
g11
I00
sg18
I01
sg31
I301
sg19
I00
sbsg1388
g0
(g267
g2
Ntp1952
Rp1953
(dp1954
g11
I00
sg18
I01
sg31
I-9999
sg19
I00
sbsg1392
g0
(g1089
g106
(lp1955
F0.0
atp1956
Rp1957
(dp1958
g11
I00
sg18
I01
sg19
I00
sbsg1397
g0
(g1089
g106
(lp1959
F0.0697
aF-0.7405
aF12.38
aF-671.9
atp1960
Rp1961
(dp1962
g11
I00
sg18
I01
sg19
I00
sbsg1402
g0
(g1089
g106
(lp1963
F0.297
aF0.298
aF0.298
aF0.313
atp1964
Rp1965
(dp1966
g11
I00
sg18
I01
sg19
I00
sbsg1446
g0
(g1089
g106
(lp1967
F0.14
aF0.135
atp1968
Rp1969
(dp1970
g11
I00
sg18
I01
sg19
I00
sbsg1437
g0
(g27
g2
Ntp1971
Rp1972
(dp1973
g11
I00
sg18
I01
sg31
I00
sg19
I00
sbsg69
(lp1974
g1376
ag1380
ag1384
ag1388
ag1442
ag1397
ag1402
ag1446
ag1437
ag1392
ag1443
ag1444
ag1445
asg1442
g0
(g137
g2
Ntp1975
Rp1976
(dp1977
g11
I00
sg18
I01
sg31
F0.0
sg19
I00
sbsg1443
g0
(g137
g2
Ntp1978
Rp1979
(dp1980
g11
I00
sg18
I01
sg31
F13.33
sg19
I00
sbsg1444
g0
(g267
g2
Ntp1981
Rp1982
(dp1983
g11
I00
sg18
I01
sg31
I301
sg19
I00
sbsg1445
g0
(g1089
g106
(lp1984
F0.0
aF0.0
atp1985
Rp1986
(dp1987
g11
I00
sg18
I01
sg19
I00
sbsbsbsg509
g512
sg907
g909
ssg348
g335
sg466
g468
sg1341
g1343
sS'CSCGeometryESModule'
p1988
g0
(g182
g2
Ntp1989
Rp1990
(dp1991
g69
(lp1992
g382
aS'useDDD'
p1993
aS'debugV'
p1994
aS'useGangedStripsInME1a'
p1995
ag1116
aS'useOnlyWiresInME1a'
p1996
aS'useRealWireGeometry'
p1997
aS'useCentreTIOffsets'
p1998
ag413
asg11
I00
sg382
g0
(g222
g2
Ntp1999
Rp2000
(dp2001
g11
I00
sg18
I01
sg31
g25
sg19
I00
sbsg19
I00
sg1994
g0
(g27
g2
Ntp2002
Rp2003
(dp2004
g11
I00
sg18
I00
sg31
I00
sg19
I00
sbsg93
g188
sg1995
g0
(g27
g2
Ntp2005
Rp2006
(dp2007
g11
I00
sg18
I01
sg31
I01
sg19
I00
sbsg1116
g0
(g222
g2
Ntp2008
Rp2009
(dp2010
g11
I00
sg18
I01
sg31
g25
sg19
I00
sbsg1996
g0
(g27
g2
Ntp2011
Rp2012
(dp2013
g11
I00
sg18
I01
sg31
I00
sg19
I00
sbsg1993
g0
(g27
g2
Ntp2014
Rp2015
(dp2016
g11
I00
sg18
I01
sg31
I00
sg19
I00
sbsg12
I53
sg1998
g0
(g27
g2
Ntp2017
Rp2018
(dp2019
g11
I00
sg18
I01
sg31
I00
sg19
I00
sbsg148
g1988
sg1997
g0
(g27
g2
Ntp2020
Rp2021
(dp2022
g11
I00
sg18
I01
sg31
I01
sg19
I00
sbsg413
g0
(g27
g2
Ntp2023
Rp2024
(dp2025
g11
I00
sg18
I01
sg31
I01
sg19
I00
sbsg156
g1988
sbsS'EcalBarrelGeometryFromDBEP'
p2026
g0
(g182
g2
Ntp2027
Rp2028
(dp2029
g69
(lp2030
g413
asg11
I00
sg19
I01
sg12
I53
sg93
g188
sg148
g2026
sg413
g0
(g27
g2
Ntp2031
Rp2032
(dp2033
g11
I00
sg18
I01
sg31
I01
sg19
I01
sbsg156
g2026
sbsS'trackerNumberingGeometryDB'
p2034
g0
(g182
g2
Ntp2035
Rp2036
(dp2037
g69
(lp2038
g382
ag1115
asg11
I00
sg382
g0
(g222
g2
Ntp2039
Rp2040
(dp2041
g11
I00
sg18
I01
sg31
g25
sg19
I00
sbsg19
I00
sg12
I53
sg93
g188
sg148
g2034
sg1115
g0
(g27
g2
Ntp2042
Rp2043
(dp2044
g11
I00
sg18
I01
sg31
I00
sg19
I00
sbsg156
S'TrackerGeometricDetESModule'
p2045
sbsS'_Process__name'
p2046
S'LL'
p2047
sg1216
g1353
sg174
g236
sS'_cloneToObjectDict'
p2048
(dp2049
I140028752483152
g1112
sI140028752485712
g0
(g182
g2
Ntp2050
Rp2051
(dp2052
g69
(lp2053
sg11
I00
sg19
I00
sg12
I53
sg93
g188
sg148
S'HcalAlignmentEP'
p2054
sg156
g2054
sbsI140028752446416
g0
(g182
g2
Ntp2055
Rp2056
(dp2057
g69
(lp2058
g382
aS'PrintDebugOutput'
p2059
aS'ThresholdForReducedGranularity'
p2060
aS'UseEmptyRunInfo'
p2061
aS'ReduceGranularity'
p2062
ag478
asg11
I00
sg382
g0
(g222
g2
Ntp2063
Rp2064
(dp2065
g11
I00
sg18
I01
sg31
g25
sg19
I00
sbsg19
I01
sg12
I53
sg93
g188
sg2060
g0
(g137
g2
Ntp2066
Rp2067
(dp2068
g11
I00
sg18
I01
sg31
F0.3
sg19
I00
sbsg148
S'siStripQualityESProducer'
p2069
sg2061
g0
(g27
g2
Ntp2070
Rp2071
(dp2072
g11
I00
sg18
I01
sg31
I00
sg19
I00
sbsg2062
g0
(g27
g2
Ntp2073
Rp2074
(dp2075
g11
I00
sg18
I01
sg31
I00
sg19
I00
sbsg478
g0
(g479
g106
(lp2076
g0
(g394
g2
Ntp2077
Rp2078
(dp2079
g11
I00
sg18
I01
sg19
I00
sg484
g0
(g222
g2
Ntp2080
Rp2081
(dp2082
g11
I00
sg18
I01
sg31
S'SiStripDetVOffRcd'
p2083
sg19
I00
sbsg489
g0
(g222
g2
Ntp2084
Rp2085
(dp2086
g11
I00
sg18
I01
sg31
g25
sg19
I00
sbsg69
(lp2087
g484
ag489
asbag0
(g394
g2
Ntp2088
Rp2089
(dp2090
g11
I00
sg18
I01
sg19
I00
sg484
g0
(g222
g2
Ntp2091
Rp2092
(dp2093
g11
I00
sg18
I01
sg31
S'SiStripDetCablingRcd'
p2094
sg19
I00
sbsg489
g0
(g222
g2
Ntp2095
Rp2096
(dp2097
g11
I00
sg18
I01
sg31
g25
sg19
I00
sbsg69
(lp2098
g484
ag489
asbag0
(g394
g2
Ntp2099
Rp2100
(dp2101
g11
I00
sg18
I01
sg19
I00
sg484
g0
(g222
g2
Ntp2102
Rp2103
(dp2104
g11
I00
sg18
I01
sg31
S'RunInfoRcd'
p2105
sg19
I00
sbsg489
g0
(g222
g2
Ntp2106
Rp2107
(dp2108
g11
I00
sg18
I01
sg31
g25
sg19
I00
sbsg69
(lp2109
g484
ag489
asbag0
(g394
g2
Ntp2110
Rp2111
(dp2112
g11
I00
sg18
I01
sg19
I00
sg484
g0
(g222
g2
Ntp2113
Rp2114
(dp2115
g11
I00
sg18
I01
sg31
S'SiStripBadChannelRcd'
p2116
sg19
I00
sbsg489
g0
(g222
g2
Ntp2117
Rp2118
(dp2119
g11
I00
sg18
I01
sg31
g25
sg19
I00
sbsg69
(lp2120
g484
ag489
asbag0
(g394
g2
Ntp2121
Rp2122
(dp2123
g11
I00
sg18
I01
sg19
I00
sg484
g0
(g222
g2
Ntp2124
Rp2125
(dp2126
g11
I00
sg18
I01
sg31
S'SiStripBadFiberRcd'
p2127
sg19
I00
sbsg489
g0
(g222
g2
Ntp2128
Rp2129
(dp2130
g11
I00
sg18
I01
sg31
g25
sg19
I00
sbsg69
(lp2131
g484
ag489
asbag0
(g394
g2
Ntp2132
Rp2133
(dp2134
g11
I00
sg18
I01
sg19
I00
sg484
g0
(g222
g2
Ntp2135
Rp2136
(dp2137
g11
I00
sg18
I01
sg31
S'SiStripBadModuleRcd'
p2138
sg19
I00
sbsg489
g0
(g222
g2
Ntp2139
Rp2140
(dp2141
g11
I00
sg18
I01
sg31
g25
sg19
I00
sbsg69
(lp2142
g484
ag489
asbag0
(g394
g2
Ntp2143
Rp2144
(dp2145
g11
I00
sg18
I01
sg19
I00
sg484
g0
(g222
g2
Ntp2146
Rp2147
(dp2148
g11
I00
sg18
I01
sg31
S'SiStripBadStripRcd'
p2149
sg19
I00
sbsg489
g0
(g222
g2
Ntp2150
Rp2151
(dp2152
g11
I00
sg18
I01
sg31
g25
sg19
I00
sbsg69
(lp2153
g484
ag489
asbatp2154
Rp2155
(dp2156
g11
I00
sg18
I01
sg19
I00
sg132
I1
sbsg156
S'SiStripQualityESProducer'
p2157
sg2059
g0
(g27
g2
Ntp2158
Rp2159
(dp2160
g11
I00
sg18
I01
sg31
I00
sg19
I00
sbsbsI140028752483344
g0
(g182
g2
Ntp2161
Rp2162
(dp2163
g69
(lp2164
sg11
I00
sg19
I00
sg12
I53
sg93
g188
sg148
S'GlobalTrackingGeometryESProducer'
p2165
sg156
g2165
sbsI140028752888912
g1212
sI140028752565456
g0
(g182
g2
Ntp2166
Rp2167
(dp2168
g69
(lp2169
g382
ag1115
ag413
ag1116
asg11
I00
sg382
g0
(g222
g2
Ntp2170
Rp2171
(dp2172
g11
I00
sg18
I01
sg31
g1243
sg19
I01
sbsg19
I01
sg1116
g0
(g222
g2
Ntp2173
Rp2174
(dp2175
g11
I00
sg18
I01
sg31
g1247
sg19
I01
sbsg93
S'/cvmfs/cms.cern.ch/slc7_amd64_gcc700/cms/cmssw/CMSSW_10_2_3/python/Geometry/DTGeometryBuilder/idealForDigiDtGeometryDB_cff.py'
p2176
sg12
I8
sg148
S'idealForDigiDTGeometry'
p2177
sg1115
g0
(g27
g2
Ntp2178
Rp2179
(dp2180
g11
I00
sg18
I01
sg31
I00
sg19
I00
sbsg413
g0
(g27
g2
Ntp2181
Rp2182
(dp2183
g11
I00
sg18
I01
sg31
I00
sg19
I01
sbsg156
g1282
sbsI140028752921872
g1166
sI140028753156176
g1271
sI140028753156368
g1343
sI140028752516496
g1078
sI140028752567632
g0
(g182
g2
Ntp2184
Rp2185
(dp2186
g69
(lp2187
S'version'
p2188
ag1304
ag355
asg11
I00
sg19
I01
sg12
I53
sg93
g188
sg355
g0
(g222
g2
Ntp2189
Rp2190
(dp2191
g11
I00
sg18
I00
sg31
S'ParabolicMf'
p2192
sg19
I01
sbsg2188
g0
(g222
g2
Ntp2193
Rp2194
(dp2195
g11
I00
sg18
I01
sg31
S'Parabolic'
p2196
sg19
I00
sbsg1304
g0
(g267
g2
Ntp2197
Rp2198
(dp2199
g11
I00
sg18
I01
sg31
I-1
sg19
I00
sbsg148
S'ParabolicParametrizedMagneticFieldProducer'
p2200
sg156
S'AutoParametrizedMagneticFieldProducer'
p2201
sbsI140028752651792
g236
sI140028752564368
g0
(g182
g2
Ntp2202
Rp2203
(dp2204
g69
(lp2205
g382
asg11
I00
sg382
g0
(g222
g2
Ntp2206
Rp2207
(dp2208
g11
I00
sg18
I01
sg31
g1247
sg19
I01
sbsg19
I01
sg12
I5
sg93
S'/cvmfs/cms.cern.ch/slc7_amd64_gcc700/cms/cmssw/CMSSW_10_2_3/python/Alignment/CommonAlignmentProducer/fakeForIdealAlignmentProducer_cfi.py'
p2209
sg148
S'fakeForIdealAlignment'
p2210
sg156
S'FakeAlignmentProducer'
p2211
sbsI140028752922192
g0
(g182
g2
Ntp2212
Rp2213
(dp2214
g69
(lp2215
S'ComponentType'
p2216
ag1327
aS'parameters'
p2217
asg11
I00
sg19
I00
sg2217
g0
(g394
g2
Ntp2218
Rp2219
(dp2220
g11
I00
sg18
I01
sg19
I00
sg69
(lp2221
sbsg12
I53
sg1327
g0
(g222
g2
Ntp2222
Rp2223
(dp2224
g11
I00
sg18
I01
sg31
S'stripCPE'
p2225
sg19
I00
sbsg2216
g0
(g222
g2
Ntp2226
Rp2227
(dp2228
g11
I00
sg18
I01
sg31
S'SimpleStripCPE'
p2229
sg19
I00
sbsg93
g188
sg148
S'stripCPEESProducer'
p2230
sg156
S'StripCPEESProducer'
p2231
sbsI140028752623824
g604
sI140028752922320
g0
(g182
g2
Ntp2232
Rp2233
(dp2234
g69
(lp2235
g2216
ag1327
ag2217
asg11
I00
sg19
I01
sg2217
g0
(g394
g2
Ntp2236
Rp2237
(dp2238
g11
I00
sg18
I01
sS'maxChgOneMIP'
p2239
g0
(g137
g2
Ntp2240
Rp2241
(dp2242
g11
I00
sg18
I01
sg31
F6000.0
sg19
I00
sbsS'mLC_P2'
p2243
g0
(g137
g2
Ntp2244
Rp2245
(dp2246
g11
I00
sg18
I01
sg31
F0.3
sg19
I00
sbsS'mLC_P1'
p2247
g0
(g137
g2
Ntp2248
Rp2249
(dp2250
g11
I00
sg18
I01
sg31
F0.618
sg19
I00
sbsS'mLC_P0'
p2251
g0
(g137
g2
Ntp2252
Rp2253
(dp2254
g11
I00
sg18
I01
sg31
F-0.326
sg19
I00
sbsS'useLegacyError'
p2255
g0
(g27
g2
Ntp2256
Rp2257
(dp2258
g11
I00
sg18
I01
sg31
I00
sg19
I00
sbsS'mTIB_P1'
p2259
g0
(g137
g2
Ntp2260
Rp2261
(dp2262
g11
I00
sg18
I01
sg31
F0.202
sg19
I00
sbsS'mTEC_P1'
p2263
g0
(g137
g2
Ntp2264
Rp2265
(dp2266
g11
I00
sg18
I01
sg31
F0.471
sg19
I00
sbsS'mTEC_P0'
p2267
g0
(g137
g2
Ntp2268
Rp2269
(dp2270
g11
I00
sg18
I01
sg31
F-1.885
sg19
I00
sbsS'mTOB_P0'
p2271
g0
(g137
g2
Ntp2272
Rp2273
(dp2274
g11
I00
sg18
I01
sg31
F-1.026
sg19
I00
sbsS'mTOB_P1'
p2275
g0
(g137
g2
Ntp2276
Rp2277
(dp2278
g11
I00
sg18
I01
sg31
F0.253
sg19
I00
sbsS'mTIB_P0'
p2279
g0
(g137
g2
Ntp2280
Rp2281
(dp2282
g11
I00
sg18
I01
sg31
F-0.742
sg19
I00
sbsg69
(lp2283
g2239
ag2243
ag2247
ag2251
ag2255
ag2263
ag2267
ag2271
ag2275
ag2279
ag2259
aS'mTID_P0'
p2284
aS'mTID_P1'
p2285
asg2284
g0
(g137
g2
Ntp2286
Rp2287
(dp2288
g11
I00
sg18
I01
sg31
F-1.427
sg19
I00
sbsg2285
g0
(g137
g2
Ntp2289
Rp2290
(dp2291
g11
I00
sg18
I01
sg31
F0.433
sg19
I00
sbsg19
I00
sbsg12
I4
sg1327
g0
(g222
g2
Ntp2292
Rp2293
(dp2294
g11
I00
sg18
I01
sg31
S'StripCPEfromTrackAngle'
p2295
sg19
I00
sbsg2216
g0
(g222
g2
Ntp2296
Rp2297
(dp2298
g11
I00
sg18
I01
sg31
g2295
sg19
I00
sbsg93
S'/cvmfs/cms.cern.ch/slc7_amd64_gcc700/cms/cmssw/CMSSW_10_2_3/python/RecoLocalTracker/SiStripRecHitConverter/StripCPEfromTrackAngle_cfi.py'
p2299
sg148
S'StripCPEfromTrackAngleESProducer'
p2300
sg156
g2231
sbsI140028752196432
g9
sI140028752783120
g512
sI140028752566160
g351
sI140028752448848
g0
(g182
g2
Ntp2301
Rp2302
(dp2303
g69
(lp2304
g1993
aS'compatibiltyWith11'
p2305
asg11
I00
sg19
I00
sg12
I53
sg93
g188
sg1993
g0
(g27
g2
Ntp2306
Rp2307
(dp2308
g11
I00
sg18
I00
sg31
I00
sg19
I00
sbsg2305
g0
(g27
g2
Ntp2309
Rp2310
(dp2311
g11
I00
sg18
I00
sg31
I01
sg19
I00
sbsg148
S'RPCGeometryESModule'
p2312
sg156
g2312
sbsI140028752653200
g445
sI140028752889936
g0
(g182
g2
Ntp2313
Rp2314
(dp2315
g69
(lp2316
g382
asg11
I00
sg382
g0
(g222
g2
Ntp2317
Rp2318
(dp2319
g11
I00
sg18
I01
sg31
g25
sg19
I00
sbsg19
I00
sg12
I53
sg93
g188
sg148
S'CastorDbProducer'
p2320
sg156
g2320
sbsI140028752517264
g0
(g182
g2
Ntp2321
Rp2322
(dp2323
g69
(lp2324
sg11
I00
sg19
I00
sg12
I53
sg93
g188
sg148
S'EcalElectronicsMappingBuilder'
p2325
sg156
g2325
sbsI140028752799888
g909
sI140028752484560
g184
sI140028752515664
g0
(g182
g2
Ntp2326
Rp2327
(dp2328
g69
(lp2329
sg11
I00
sg19
I00
sg12
I53
sg93
g188
sg148
S'CaloTowerTopologyEP'
p2330
sg156
g2330
sbsI140028752566544
g1266
sI140028752196560
g597
sI140028752517520
g1132
sI140028752484944
g637
sI140028752485072
g0
(g182
g2
Ntp2331
Rp2332
(dp2333
g69
(lp2334
g413
asg11
I00
sg19
I01
sg12
I53
sg93
g188
sg148
S'EcalPreshowerGeometryFromDBEP'
p2335
sg413
g0
(g27
g2
Ntp2336
Rp2337
(dp2338
g11
I00
sg18
I01
sg31
I01
sg19
I01
sbsg156
g2335
sbsI140028752485648
g0
(g182
g2
Ntp2339
Rp2340
(dp2341
g69
(lp2342
g413
asg11
I00
sg19
I01
sg12
I53
sg93
g188
sg148
S'HcalGeometryFromDBEP'
p2343
sg413
g0
(g27
g2
Ntp2344
Rp2345
(dp2346
g11
I00
sg18
I01
sg31
I01
sg19
I01
sbsg156
g2343
sbsI140028752564624
g0
(g182
g2
Ntp2347
Rp2348
(dp2349
g69
(lp2350
g382
ag1993
ag1994
ag1995
ag1116
ag1996
ag1997
ag1998
ag413
asg11
I00
sg382
g0
(g222
g2
Ntp2351
Rp2352
(dp2353
g11
I00
sg18
I01
sg31
g1243
sg19
I01
sbsg19
I01
sg1994
g0
(g27
g2
Ntp2354
Rp2355
(dp2356
g11
I00
sg18
I00
sg31
I00
sg19
I00
sbsg93
S'/cvmfs/cms.cern.ch/slc7_amd64_gcc700/cms/cmssw/CMSSW_10_2_3/python/Geometry/CSCGeometryBuilder/idealForDigiCscGeometryDB_cff.py'
p2357
sg1995
g0
(g27
g2
Ntp2358
Rp2359
(dp2360
g11
I00
sg18
I01
sg31
I01
sg19
I00
sbsg1116
g0
(g222
g2
Ntp2361
Rp2362
(dp2363
g11
I00
sg18
I01
sg31
g1247
sg19
I01
sbsg1996
g0
(g27
g2
Ntp2364
Rp2365
(dp2366
g11
I00
sg18
I01
sg31
I00
sg19
I00
sbsg1993
g0
(g27
g2
Ntp2367
Rp2368
(dp2369
g11
I00
sg18
I01
sg31
I00
sg19
I00
sbsg12
I8
sg1998
g0
(g27
g2
Ntp2370
Rp2371
(dp2372
g11
I00
sg18
I01
sg31
I00
sg19
I00
sbsg148
S'idealForDigiCSCGeometry'
p2373
sg1997
g0
(g27
g2
Ntp2374
Rp2375
(dp2376
g11
I00
sg18
I01
sg31
I01
sg19
I00
sbsg413
g0
(g27
g2
Ntp2377
Rp2378
(dp2379
g11
I00
sg18
I01
sg31
I00
sg19
I01
sbsg156
g1988
sbsI140028752485200
g2028
sI140028752652560
g288
sI140028752518032
g379
sI140028752923664
g1323
sI140028752567120
g1301
sI140028752800848
g1086
sI140028752923792
g0
(g182
g2
Ntp2380
Rp2381
(dp2382
g69
(lp2383
sg11
I00
sg19
I00
sg12
I53
sg93
g188
sg148
S'sistripconn'
p2384
sg156
S'SiStripConnectivity'
p2385
sbsI140028752484112
g1318
sI140028753157392
g1221
sI140028752712528
g468
sI140028752518544
g1237
sI140028752518352
g0
(g182
g2
Ntp2386
Rp2387
(dp2388
g69
(lp2389
g382
asg11
I00
sg382
g0
(g222
g2
Ntp2390
Rp2391
(dp2392
g11
I00
sg18
I01
sg31
g25
sg19
I00
sbsg19
I00
sg12
I53
sg93
g188
sg148
S'hcalDDDRecConstants'
p2393
sg156
S'HcalDDDRecConstantsESModule'
p2394
sbsI140028752652688
g205
sI140028752891536
g0
(g182
g2
Ntp2395
Rp2396
(dp2397
g69
(lp2398
S'printDebug'
p2399
ag382
aS'APVGain'
p2400
aS'AutomaticNormalization'
p2401
asg11
I00
sg382
g0
(g222
g2
Ntp2402
Rp2403
(dp2404
g11
I00
sg18
I01
sg31
g25
sg19
I00
sbsg19
I00
sg2401
g0
(g27
g2
Ntp2405
Rp2406
(dp2407
g11
I00
sg18
I01
sg31
I00
sg19
I00
sbsg12
I53
sg2399
g0
(g27
g2
Ntp2408
Rp2409
(dp2410
g11
I00
sg18
I00
sg31
I00
sg19
I00
sbsg93
g188
sg2400
g0
(g479
g106
(lp2411
g0
(g394
g2
Ntp2412
Rp2413
(dp2414
g11
I00
sg18
I01
sg19
I00
sS'Label'
p2415
g0
(g222
g2
Ntp2416
Rp2417
(dp2418
g11
I00
sg18
I00
sg31
g25
sg19
I00
sbsS'Record'
p2419
g0
(g222
g2
Ntp2420
Rp2421
(dp2422
g11
I00
sg18
I01
sg31
S'SiStripApvGainRcd'
p2423
sg19
I00
sbsS'NormalizationFactor'
p2424
g0
(g137
g2
Ntp2425
Rp2426
(dp2427
g11
I00
sg18
I00
sg31
F1.0
sg19
I00
sbsg69
(lp2428
g2419
ag2424
ag2415
asbag0
(g394
g2
Ntp2429
Rp2430
(dp2431
g11
I00
sg18
I01
sg19
I00
sg2415
g0
(g222
g2
Ntp2432
Rp2433
(dp2434
g11
I00
sg18
I00
sg31
g25
sg19
I00
sbsg2419
g0
(g222
g2
Ntp2435
Rp2436
(dp2437
g11
I00
sg18
I01
sg31
S'SiStripApvGain2Rcd'
p2438
sg19
I00
sbsg2424
g0
(g137
g2
Ntp2439
Rp2440
(dp2441
g11
I00
sg18
I00
sg31
F1.0
sg19
I00
sbsg69
(lp2442
g2419
ag2424
ag2415
asbatp2443
Rp2444
(dp2445
g11
I00
sg18
I01
sg19
I00
sg132
I1
sbsg148
S'siStripGainESProducer'
p2446
sg156
S'SiStripGainESProducer'
p2447
sbsI140028752715472
g0
(g182
g2
Ntp2448
Rp2449
(dp2450
g69
(lp2451
sg11
I00
sg19
I00
sg12
I53
sg93
g188
sg148
S'EcalLaserCorrectionService'
p2452
sg156
g2452
sbsI140028752800912
g0
(g182
g2
Ntp2453
Rp2454
(dp2455
g69
(lp2456
S'file'
p2457
aS'dump'
p2458
asg11
I00
sg19
I00
sg2458
g0
(g105
g106
(lp2459
g25
atp2460
Rp2461
(dp2462
g11
I00
sg18
I00
sg19
I00
sg132
I1
sbsg12
I53
sg93
g188
sg2457
g0
(g222
g2
Ntp2463
Rp2464
(dp2465
g11
I00
sg18
I00
sg31
g25
sg19
I00
sbsg148
S'hcal_db_producer'
p2466
sg156
S'HcalDbProducer'
p2467
sbsI140028752858960
g1353
sI140028752924560
g475
sI140028752516816
g1156
sI140028752449488
g1284
sI140028752483536
g0
(g182
g2
Ntp2468
Rp2469
(dp2470
g69
(lp2471
g382
asg11
I00
sg382
g0
(g222
g2
Ntp2472
Rp2473
(dp2474
g11
I00
sg18
I01
sg31
g25
sg19
I00
sbsg19
I00
sg12
I53
sg93
g188
sg148
S'trackerTopology'
p2475
sg156
S'TrackerTopologyEP'
p2476
sbsI140028752483728
g632
sI140028752650384
g216
sI140028752515280
g0
(g182
g2
Ntp2477
Rp2478
(dp2479
g69
(lp2480
S'MergePosition'
p2481
aS'Exclude'
p2482
ag382
asg11
I00
sg382
g0
(g222
g2
Ntp2483
Rp2484
(dp2485
g11
I00
sg18
I01
sg31
g25
sg19
I00
sbsg19
I00
sg12
I53
sg2481
g0
(g27
g2
Ntp2486
Rp2487
(dp2488
g11
I00
sg18
I00
sg31
I00
sg19
I00
sbsg93
g188
sg148
S'hcalTopologyIdeal'
p2489
sg2482
g0
(g222
g2
Ntp2490
Rp2491
(dp2492
g11
I00
sg18
I00
sg31
g25
sg19
I00
sbsg156
S'HcalTopologyIdealEP'
p2493
sbsI140028752482704
g2036
sI140028752483408
g0
(g182
g2
Ntp2494
Rp2495
(dp2496
g69
(lp2497
sg11
I00
sg19
I00
sg12
I53
sg93
g188
sg148
S'TrackerRecoGeometryESProducer'
p2498
sg156
g2498
sbsI140028752448528
g1990
sI140028752650768
g422
sI140028752921168
g0
(g182
g2
Ntp2499
Rp2500
(dp2501
g69
(lp2502
g1169
aS'LorentzAngleDeconvMode'
p2503
aS'LorentzAnglePeakMode'
p2504
asg11
I00
sg19
I00
sg12
I53
sg93
g188
sg1169
g0
(g394
g2
Ntp2505
Rp2506
(dp2507
g11
I00
sg18
I01
sg19
I00
sg355
g0
(g222
g2
Ntp2508
Rp2509
(dp2510
g11
I00
sg18
I00
sg31
g25
sg19
I00
sbsg484
g0
(g222
g2
Ntp2511
Rp2512
(dp2513
g11
I00
sg18
I01
sg31
g1181
sg19
I00
sbsg69
(lp2514
g484
ag355
asbsg148
S'siStripLorentzAngleDepESProducer'
p2515
sg2504
g0
(g394
g2
Ntp2516
Rp2517
(dp2518
g11
I00
sg18
I01
sg19
I00
sg355
g0
(g222
g2
Ntp2519
Rp2520
(dp2521
g11
I00
sg18
I00
sg31
g1189
sg19
I00
sbsg484
g0
(g222
g2
Ntp2522
Rp2523
(dp2524
g11
I00
sg18
I01
sg31
S'SiStripLorentzAngleRcd'
p2525
sg19
I00
sbsg69
(lp2526
g484
ag355
asbsg156
S'SiStripLorentzAngleDepESProducer'
p2527
sg2503
g0
(g394
g2
Ntp2528
Rp2529
(dp2530
g11
I00
sg18
I01
sg19
I00
sg355
g0
(g222
g2
Ntp2531
Rp2532
(dp2533
g11
I00
sg18
I00
sg31
g1201
sg19
I00
sbsg484
g0
(g222
g2
Ntp2534
Rp2535
(dp2536
g11
I00
sg18
I01
sg31
g2525
sg19
I00
sbsg69
(lp2537
g484
ag355
asbsbsI140028752486032
g410
sI140028752516176
g0
(g182
g2
Ntp2538
Rp2539
(dp2540
g69
(lp2541
g413
asg11
I00
sg19
I00
sg12
I53
sg93
g188
sg148
S'ZdcGeometryFromDBEP'
p2542
sg413
g0
(g27
g2
Ntp2543
Rp2544
(dp2545
g11
I00
sg18
I01
sg31
I00
sg19
I00
sbsg156
g2542
sbssg2446
g2396
sg2312
g2302
sg2384
g2381
sg2542
g2539
sg2498
g2495
sg2515
g2500
sg2330
g2327
sg2200
g2185
sg2230
g2213
sg2475
g2469
sg2343
g2340
sg1209
g1212
sg2325
g2322
sg2300
g2233
sS'_Process__aliases'
p2546
(dp2547
sg2165
g2162
sg2452
g2449
sg2054
g2051
sg2335
g2332
sg2393
g2387
sg2320
g2314
sg2373
g2348
sS'_Process__subProcesses'
p2548
(lp2549
sg616
g604
sg2466
g2454
sg2489
g2478
sS'_Process__schedule'
p2550
Nsg2069
g2056
sg50
g445
sg2177
g2167
sS'_Process__modifiers'
p2551
(tsg92
g288
sS'_Process__filters'
p2552
(dp2553
g174
g236
sg92
g288
sg233
g216
ssS'_Process__esproducers'
p2554
(dp2555
g181
g184
sg1282
g1284
sg1299
g1301
sg2300
g2233
sg1076
g1078
sg1316
g1318
sg2165
g2162
sg349
g351
sg1110
g1112
sg1264
g1266
sg1321
g1323
sg2542
g2539
sg2054
g2051
sg2335
g2332
sg2320
g2314
sg2393
g2387
sg1988
g1990
sg2026
g2028
sg2034
g2036
sg1154
g1156
sg2373
g2348
sg408
g410
sg1164
g1166
sg2466
g2454
sg2446
g2396
sg2312
g2302
sg2384
g2381
sg2452
g2449
sg2325
g2322
sg2069
g2056
sg2177
g2167
sg2489
g2478
sg2200
g2185
sg2515
g2500
sg2330
g2327
sg473
g475
sg2230
g2213
sg377
g379
sg630
g632
sg2475
g2469
sg2498
g2495
sg635
g637
sg2210
g2203
sg1235
g1237
sg2343
g2340
ssS'_Process__partialschedules'
p2556
(dp2557
sg2210
g2203
sb.