(dp1
S'OriginalConfig'
p2
ccopy_reg
_reconstructor
p3
(cWMCore.Configuration
Configuration
p4
c__builtin__
object
p5
NtRp6
(dp7
S'Site'
p8
g3
(cWMCore.Configuration
ConfigSection
p9
g5
NtRp10
(dp11
S'_internal_skipChecks'
p12
I00
sS'_internal_documentation'
p13
S''
sS'_internal_settings'
p14
c__builtin__
set
p15
((lp16
S'storageSite'
p17
atRp18
sS'_internal_name'
p19
g8
sS'_internal_docstrings'
p20
(dp21
sS'_internal_children'
p22
g15
((ltRp23
sg17
S'T2_CH_CERNBOX'
p24
sS'_internal_parent_ref'
p25
NsbsS'_internal_sections'
p26
(lp27
S'General'
p28
aS'JobType'
p29
aS'Data'
p30
ag8
aS'User'
p31
aS'Debug'
p32
asg28
g3
(g9
g5
NtRp33
(dp34
g12
I00
sg13
S''
sg14
g15
((ltRp35
sg19
g28
sg20
(dp36
sg22
g15
((ltRp37
sg25
NsbsS'_internal_webapps'
p38
(lp39
sg31
g3
(g9
g5
NtRp40
(dp41
g12
I00
sg13
S''
sg14
g15
((ltRp42
sg19
g31
sg20
(dp43
sg22
g15
((ltRp44
sg25
NsbsS'_internal_components'
p45
(lp46
sg32
g3
(g9
g5
NtRp47
(dp48
g12
I00
sg13
S''
sg14
g15
((ltRp49
sg19
g32
sg20
(dp50
sg22
g15
((ltRp51
sg25
Nsbsg30
g3
(g9
g5
NtRp52
(dp53
S'inputDataset'
p54
S'/DYJetsToLL_M-10to50_TuneCP5_13TeV-madgraphMLM-pythia8/RunIIAutumn18MiniAOD-102X_upgrade2018_realistic_v15-v2/MINIAODSIM'
p55
sg12
I00
sS'unitsPerJob'
p56
I50000
sg13
S''
sg14
g15
((lp57
g54
ag56
aS'outLFNDirBase'
p58
aS'splitting'
p59
aS'inputDBS'
p60
atRp61
sg58
S'/store/user/ccosby/DrellYanNew06042020/'
p62
sg19
g30
sg59
S'EventAwareLumiBased'
p63
sg20
(dp64
sg22
g15
((ltRp65
sg60
S'global'
p66
sg25
Nsbsg29
g3
(g9
g5
NtRp67
(dp68
g12
I00
sS'pyCfgParams'
p69
(lp70
S'isMC=True'
p71
aS'useWeights=True'
p72
aS'xsec=1.0'
p73
asg13
S''
sg14
g15
((lp74
S'psetName'
p75
aS'pluginName'
p76
ag69
aS'allowUndistributedCMSSW'
p77
atRp78
sg19
g29
sg20
(dp79
sg76
S'Analysis'
p80
sg22
g15
((ltRp81
sg77
I01
sg75
S'../../test/tree_cfg.py'
p82
sg25
NsbsbsS'voGroup'
p83
S''
sS'Server'
p84
S'cmsweb.cern.ch'
p85
sS'instance'
p86
S'prod'
p87
sS'RequestName'
p88
V200604_141852:ccosby_crab_20200604_161831
p89
sS'voRole'
p90
S'NULL'
p91
sS'Port'
p92
S''
s.